ARM GAS  /tmp/cceeKmOh.s 			page 1


   1              		.cpu cortex-m7
   2              		.eabi_attribute 28, 1
   3              		.eabi_attribute 20, 1
   4              		.eabi_attribute 21, 1
   5              		.eabi_attribute 23, 3
   6              		.eabi_attribute 24, 1
   7              		.eabi_attribute 25, 1
   8              		.eabi_attribute 26, 1
   9              		.eabi_attribute 30, 1
  10              		.eabi_attribute 34, 1
  11              		.eabi_attribute 18, 4
  12              		.file	"freertos.c"
  13              		.text
  14              	.Ltext0:
  15              		.cfi_sections	.debug_frame
  16              		.section	.text.StartDefaultTask,"ax",%progbits
  17              		.align	1
  18              		.global	StartDefaultTask
  19              		.arch armv7e-m
  20              		.syntax unified
  21              		.thumb
  22              		.thumb_func
  23              		.fpu fpv5-d16
  25              	StartDefaultTask:
  26              	.LFB152:
  27              		.file 1 "Core/Src/freertos.c"
   1:Core/Src/freertos.c **** /* USER CODE BEGIN Header */
   2:Core/Src/freertos.c **** /**
   3:Core/Src/freertos.c ****   ******************************************************************************
   4:Core/Src/freertos.c ****   * File Name          : freertos.c
   5:Core/Src/freertos.c ****   * Description        : Code for freertos applications
   6:Core/Src/freertos.c ****   ******************************************************************************
   7:Core/Src/freertos.c ****   * @attention
   8:Core/Src/freertos.c ****   *
   9:Core/Src/freertos.c ****   * Copyright (c) 2025 STMicroelectronics.
  10:Core/Src/freertos.c ****   * All rights reserved.
  11:Core/Src/freertos.c ****   *
  12:Core/Src/freertos.c ****   * This software is licensed under terms that can be found in the LICENSE file
  13:Core/Src/freertos.c ****   * in the root directory of this software component.
  14:Core/Src/freertos.c ****   * If no LICENSE file comes with this software, it is provided AS-IS.
  15:Core/Src/freertos.c ****   *
  16:Core/Src/freertos.c ****   ******************************************************************************
  17:Core/Src/freertos.c ****   */
  18:Core/Src/freertos.c **** /* USER CODE END Header */
  19:Core/Src/freertos.c **** 
  20:Core/Src/freertos.c **** /* Includes ------------------------------------------------------------------*/
  21:Core/Src/freertos.c **** #include "FreeRTOS.h"
  22:Core/Src/freertos.c **** #include "task.h"
  23:Core/Src/freertos.c **** #include "main.h"
  24:Core/Src/freertos.c **** #include "cmsis_os.h"
  25:Core/Src/freertos.c **** #include <stdio.h>
  26:Core/Src/freertos.c **** 
  27:Core/Src/freertos.c **** /* Private includes ----------------------------------------------------------*/
  28:Core/Src/freertos.c **** /* USER CODE BEGIN Includes */
  29:Core/Src/freertos.c **** #include <stdio.h>
  30:Core/Src/freertos.c **** /* USER CODE END Includes */
  31:Core/Src/freertos.c **** 
ARM GAS  /tmp/cceeKmOh.s 			page 2


  32:Core/Src/freertos.c **** /* Private typedef -----------------------------------------------------------*/
  33:Core/Src/freertos.c **** /* USER CODE BEGIN PTD */
  34:Core/Src/freertos.c **** 
  35:Core/Src/freertos.c **** /* USER CODE END PTD */
  36:Core/Src/freertos.c **** 
  37:Core/Src/freertos.c **** /* Private define ------------------------------------------------------------*/
  38:Core/Src/freertos.c **** /* USER CODE BEGIN PD */
  39:Core/Src/freertos.c **** 
  40:Core/Src/freertos.c **** /* USER CODE END PD */
  41:Core/Src/freertos.c **** 
  42:Core/Src/freertos.c **** /* Private macro -------------------------------------------------------------*/
  43:Core/Src/freertos.c **** /* USER CODE BEGIN PM */
  44:Core/Src/freertos.c **** 
  45:Core/Src/freertos.c **** /* USER CODE END PM */
  46:Core/Src/freertos.c **** 
  47:Core/Src/freertos.c **** /* Private variables ---------------------------------------------------------*/
  48:Core/Src/freertos.c **** /* USER CODE BEGIN Variables */
  49:Core/Src/freertos.c **** 
  50:Core/Src/freertos.c **** /* USER CODE END Variables */
  51:Core/Src/freertos.c **** /* Definitions for defaultTask */
  52:Core/Src/freertos.c **** osThreadId_t defaultTaskHandle;
  53:Core/Src/freertos.c **** const osThreadAttr_t defaultTask_attributes = {
  54:Core/Src/freertos.c ****   .name = "defaultTask",
  55:Core/Src/freertos.c ****   .stack_size = 128 * 4,
  56:Core/Src/freertos.c ****   .priority = (osPriority_t) osPriorityNormal,
  57:Core/Src/freertos.c **** };
  58:Core/Src/freertos.c **** /* Definitions for uartPrintTask */
  59:Core/Src/freertos.c **** osThreadId_t uartPrintTaskHandle;
  60:Core/Src/freertos.c **** const osThreadAttr_t uartPrintTask_attributes = {
  61:Core/Src/freertos.c ****   .name = "uartPrintTask",
  62:Core/Src/freertos.c ****   .stack_size = 128 * 4,
  63:Core/Src/freertos.c ****   .priority = (osPriority_t) osPriorityLow,
  64:Core/Src/freertos.c **** };
  65:Core/Src/freertos.c **** 
  66:Core/Src/freertos.c **** /* Private function prototypes -----------------------------------------------*/
  67:Core/Src/freertos.c **** /* USER CODE BEGIN FunctionPrototypes */
  68:Core/Src/freertos.c **** void StartUartPrintTask(void *argument);
  69:Core/Src/freertos.c **** /* USER CODE END FunctionPrototypes */
  70:Core/Src/freertos.c **** 
  71:Core/Src/freertos.c **** void StartDefaultTask(void *argument);
  72:Core/Src/freertos.c **** void StartUartPrintTask(void *argument);
  73:Core/Src/freertos.c **** 
  74:Core/Src/freertos.c **** void MX_FREERTOS_Init(void); /* (MISRA C 2004 rule 8.1) */
  75:Core/Src/freertos.c **** 
  76:Core/Src/freertos.c **** /**
  77:Core/Src/freertos.c ****   * @brief  FreeRTOS initialization
  78:Core/Src/freertos.c ****   * @param  None
  79:Core/Src/freertos.c ****   * @retval None
  80:Core/Src/freertos.c ****   */
  81:Core/Src/freertos.c **** void MX_FREERTOS_Init(void) {
  82:Core/Src/freertos.c ****   /* USER CODE BEGIN Init */
  83:Core/Src/freertos.c **** 
  84:Core/Src/freertos.c ****   /* USER CODE END Init */
  85:Core/Src/freertos.c **** 
  86:Core/Src/freertos.c ****   /* USER CODE BEGIN RTOS_MUTEX */
  87:Core/Src/freertos.c ****   /* add mutexes, ... */
  88:Core/Src/freertos.c ****   /* USER CODE END RTOS_MUTEX */
ARM GAS  /tmp/cceeKmOh.s 			page 3


  89:Core/Src/freertos.c **** 
  90:Core/Src/freertos.c ****   /* USER CODE BEGIN RTOS_SEMAPHORES */
  91:Core/Src/freertos.c ****   /* add semaphores, ... */
  92:Core/Src/freertos.c ****   /* USER CODE END RTOS_SEMAPHORES */
  93:Core/Src/freertos.c **** 
  94:Core/Src/freertos.c ****   /* USER CODE BEGIN RTOS_TIMERS */
  95:Core/Src/freertos.c ****   /* start timers, add new ones, ... */
  96:Core/Src/freertos.c ****   /* USER CODE END RTOS_TIMERS */
  97:Core/Src/freertos.c **** 
  98:Core/Src/freertos.c ****   /* USER CODE BEGIN RTOS_QUEUES */
  99:Core/Src/freertos.c ****   /* add queues, ... */
 100:Core/Src/freertos.c ****   /* USER CODE END RTOS_QUEUES */
 101:Core/Src/freertos.c **** 
 102:Core/Src/freertos.c ****   /* Create the thread(s) */
 103:Core/Src/freertos.c ****   /* creation of defaultTask */
 104:Core/Src/freertos.c ****   defaultTaskHandle = osThreadNew(StartDefaultTask, NULL, &defaultTask_attributes);
 105:Core/Src/freertos.c ****   /* creation of uartPrintTask */
 106:Core/Src/freertos.c ****   uartPrintTaskHandle = osThreadNew(StartUartPrintTask, NULL, &uartPrintTask_attributes);
 107:Core/Src/freertos.c **** 
 108:Core/Src/freertos.c ****   /* USER CODE BEGIN RTOS_THREADS */
 109:Core/Src/freertos.c ****   /* add threads, ... */
 110:Core/Src/freertos.c ****   /* USER CODE END RTOS_THREADS */
 111:Core/Src/freertos.c **** 
 112:Core/Src/freertos.c ****   /* USER CODE BEGIN RTOS_EVENTS */
 113:Core/Src/freertos.c ****   /* add events, ... */
 114:Core/Src/freertos.c ****   /* USER CODE END RTOS_EVENTS */
 115:Core/Src/freertos.c **** 
 116:Core/Src/freertos.c **** }
 117:Core/Src/freertos.c **** 
 118:Core/Src/freertos.c **** /* USER CODE BEGIN Header_StartDefaultTask */
 119:Core/Src/freertos.c **** /**
 120:Core/Src/freertos.c ****   * @brief  Function implementing the defaultTask thread.
 121:Core/Src/freertos.c ****   * @param  argument: Not used
 122:Core/Src/freertos.c ****   * @retval None
 123:Core/Src/freertos.c ****   */
 124:Core/Src/freertos.c **** /* USER CODE END Header_StartDefaultTask */
 125:Core/Src/freertos.c **** void StartDefaultTask(void *argument)
 126:Core/Src/freertos.c **** {
  28              		.loc 1 126 1 view -0
  29              		.cfi_startproc
  30              		@ Volatile: function does not return.
  31              		@ args = 0, pretend = 0, frame = 0
  32              		@ frame_needed = 0, uses_anonymous_args = 0
  33              	.LVL0:
  34              		.loc 1 126 1 is_stmt 0 view .LVU1
  35 0000 08B5     		push	{r3, lr}
  36              	.LCFI0:
  37              		.cfi_def_cfa_offset 8
  38              		.cfi_offset 3, -8
  39              		.cfi_offset 14, -4
  40              	.LVL1:
  41              	.L2:
 127:Core/Src/freertos.c ****   /* USER CODE BEGIN StartDefaultTask */
 128:Core/Src/freertos.c ****   /* Infinite loop */
 129:Core/Src/freertos.c ****   for(;;)
  42              		.loc 1 129 3 is_stmt 1 discriminator 1 view .LVU2
 130:Core/Src/freertos.c ****   {
ARM GAS  /tmp/cceeKmOh.s 			page 4


 131:Core/Src/freertos.c ****     LED_ServiceTask();
  43              		.loc 1 131 5 discriminator 1 view .LVU3
  44 0002 FFF7FEFF 		bl	LED_ServiceTask
  45              	.LVL2:
 132:Core/Src/freertos.c ****     osDelay(50);
  46              		.loc 1 132 5 discriminator 1 view .LVU4
  47 0006 3220     		movs	r0, #50
  48 0008 FFF7FEFF 		bl	osDelay
  49              	.LVL3:
 129:Core/Src/freertos.c ****   {
  50              		.loc 1 129 8 discriminator 1 view .LVU5
  51 000c F9E7     		b	.L2
  52              		.cfi_endproc
  53              	.LFE152:
  55              		.section	.rodata.StartUartPrintTask.str1.4,"aMS",%progbits,1
  56              		.align	2
  57              	.LC0:
  58 0000 48656C6C 		.ascii	"Hello from FreeRTOS!\015\000"
  58      6F206672 
  58      6F6D2046 
  58      72656552 
  58      544F5321 
  59              		.section	.text.StartUartPrintTask,"ax",%progbits
  60              		.align	1
  61              		.global	StartUartPrintTask
  62              		.syntax unified
  63              		.thumb
  64              		.thumb_func
  65              		.fpu fpv5-d16
  67              	StartUartPrintTask:
  68              	.LFB153:
 133:Core/Src/freertos.c ****   }
 134:Core/Src/freertos.c ****   /* USER CODE END StartDefaultTask */
 135:Core/Src/freertos.c **** }
 136:Core/Src/freertos.c **** /* USER CODE BEGIN Header_StartUartPrintTask */
 137:Core/Src/freertos.c **** /**
 138:Core/Src/freertos.c ****   * @brief  Function implementing the uartPrintTask thread.
 139:Core/Src/freertos.c ****   * @param  argument: Not used
 140:Core/Src/freertos.c ****   * @retval None
 141:Core/Src/freertos.c ****   */
 142:Core/Src/freertos.c **** /* USER CODE END Header_StartUartPrintTask */
 143:Core/Src/freertos.c **** void StartUartPrintTask(void *argument)
 144:Core/Src/freertos.c **** {
  69              		.loc 1 144 1 view -0
  70              		.cfi_startproc
  71              		@ Volatile: function does not return.
  72              		@ args = 0, pretend = 0, frame = 0
  73              		@ frame_needed = 0, uses_anonymous_args = 0
  74              	.LVL4:
  75              		.loc 1 144 1 is_stmt 0 view .LVU7
  76 0000 08B5     		push	{r3, lr}
  77              	.LCFI1:
  78              		.cfi_def_cfa_offset 8
  79              		.cfi_offset 3, -8
  80              		.cfi_offset 14, -4
  81              	.LVL5:
  82              	.L5:
ARM GAS  /tmp/cceeKmOh.s 			page 5


 145:Core/Src/freertos.c ****   /* USER CODE BEGIN StartUartPrintTask */
 146:Core/Src/freertos.c ****   for(;;)
  83              		.loc 1 146 3 is_stmt 1 discriminator 1 view .LVU8
 147:Core/Src/freertos.c ****   {
 148:Core/Src/freertos.c ****     printf("Hello from FreeRTOS!\r\n");
  84              		.loc 1 148 5 discriminator 1 view .LVU9
  85 0002 0448     		ldr	r0, .L7
  86 0004 FFF7FEFF 		bl	puts
  87              	.LVL6:
 149:Core/Src/freertos.c ****     osDelay(1000);
  88              		.loc 1 149 5 discriminator 1 view .LVU10
  89 0008 4FF47A70 		mov	r0, #1000
  90 000c FFF7FEFF 		bl	osDelay
  91              	.LVL7:
 146:Core/Src/freertos.c ****   {
  92              		.loc 1 146 8 discriminator 1 view .LVU11
  93 0010 F7E7     		b	.L5
  94              	.L8:
  95 0012 00BF     		.align	2
  96              	.L7:
  97 0014 00000000 		.word	.LC0
  98              		.cfi_endproc
  99              	.LFE153:
 101              		.section	.text.MX_FREERTOS_Init,"ax",%progbits
 102              		.align	1
 103              		.global	MX_FREERTOS_Init
 104              		.syntax unified
 105              		.thumb
 106              		.thumb_func
 107              		.fpu fpv5-d16
 109              	MX_FREERTOS_Init:
 110              	.LFB151:
  81:Core/Src/freertos.c ****   /* USER CODE BEGIN Init */
 111              		.loc 1 81 29 view -0
 112              		.cfi_startproc
 113              		@ args = 0, pretend = 0, frame = 0
 114              		@ frame_needed = 0, uses_anonymous_args = 0
 115 0000 08B5     		push	{r3, lr}
 116              	.LCFI2:
 117              		.cfi_def_cfa_offset 8
 118              		.cfi_offset 3, -8
 119              		.cfi_offset 14, -4
 104:Core/Src/freertos.c ****   /* creation of uartPrintTask */
 120              		.loc 1 104 3 view .LVU13
 104:Core/Src/freertos.c ****   /* creation of uartPrintTask */
 121              		.loc 1 104 23 is_stmt 0 view .LVU14
 122 0002 074A     		ldr	r2, .L11
 123 0004 0021     		movs	r1, #0
 124 0006 0748     		ldr	r0, .L11+4
 125 0008 FFF7FEFF 		bl	osThreadNew
 126              	.LVL8:
 104:Core/Src/freertos.c ****   /* creation of uartPrintTask */
 127              		.loc 1 104 21 view .LVU15
 128 000c 064B     		ldr	r3, .L11+8
 129 000e 1860     		str	r0, [r3]
 106:Core/Src/freertos.c **** 
 130              		.loc 1 106 3 is_stmt 1 view .LVU16
ARM GAS  /tmp/cceeKmOh.s 			page 6


 106:Core/Src/freertos.c **** 
 131              		.loc 1 106 25 is_stmt 0 view .LVU17
 132 0010 064A     		ldr	r2, .L11+12
 133 0012 0021     		movs	r1, #0
 134 0014 0648     		ldr	r0, .L11+16
 135 0016 FFF7FEFF 		bl	osThreadNew
 136              	.LVL9:
 106:Core/Src/freertos.c **** 
 137              		.loc 1 106 23 view .LVU18
 138 001a 064B     		ldr	r3, .L11+20
 139 001c 1860     		str	r0, [r3]
 116:Core/Src/freertos.c **** 
 140              		.loc 1 116 1 view .LVU19
 141 001e 08BD     		pop	{r3, pc}
 142              	.L12:
 143              		.align	2
 144              	.L11:
 145 0020 00000000 		.word	.LANCHOR0
 146 0024 00000000 		.word	StartDefaultTask
 147 0028 00000000 		.word	.LANCHOR1
 148 002c 00000000 		.word	.LANCHOR2
 149 0030 00000000 		.word	StartUartPrintTask
 150 0034 00000000 		.word	.LANCHOR3
 151              		.cfi_endproc
 152              	.LFE151:
 154              		.global	uartPrintTask_attributes
 155              		.section	.rodata.str1.4,"aMS",%progbits,1
 156              		.align	2
 157              	.LC1:
 158 0000 75617274 		.ascii	"uartPrintTask\000"
 158      5072696E 
 158      74546173 
 158      6B00
 159              		.global	uartPrintTaskHandle
 160              		.global	defaultTask_attributes
 161 000e 0000     		.align	2
 162              	.LC2:
 163 0010 64656661 		.ascii	"defaultTask\000"
 163      756C7454 
 163      61736B00 
 164              		.global	defaultTaskHandle
 165              		.section	.bss.defaultTaskHandle,"aw",%nobits
 166              		.align	2
 167              		.set	.LANCHOR1,. + 0
 170              	defaultTaskHandle:
 171 0000 00000000 		.space	4
 172              		.section	.bss.uartPrintTaskHandle,"aw",%nobits
 173              		.align	2
 174              		.set	.LANCHOR3,. + 0
 177              	uartPrintTaskHandle:
 178 0000 00000000 		.space	4
 179              		.section	.rodata.defaultTask_attributes,"a"
 180              		.align	2
 181              		.set	.LANCHOR0,. + 0
 184              	defaultTask_attributes:
 185 0000 10000000 		.word	.LC2
 186 0004 00000000 		.space	16
ARM GAS  /tmp/cceeKmOh.s 			page 7


 186      00000000 
 186      00000000 
 186      00000000 
 187 0014 00020000 		.word	512
 188 0018 18000000 		.word	24
 189 001c 00000000 		.space	8
 189      00000000 
 190              		.section	.rodata.uartPrintTask_attributes,"a"
 191              		.align	2
 192              		.set	.LANCHOR2,. + 0
 195              	uartPrintTask_attributes:
 196 0000 00000000 		.word	.LC1
 197 0004 00000000 		.space	16
 197      00000000 
 197      00000000 
 197      00000000 
 198 0014 00020000 		.word	512
 199 0018 08000000 		.word	8
 200 001c 00000000 		.space	8
 200      00000000 
 201              		.text
 202              	.Letext0:
 203              		.file 2 "/usr/lib/gcc/arm-none-eabi/10.3.1/include/stdint.h"
 204              		.file 3 "Middlewares/Third_Party/FreeRTOS/Source/CMSIS_RTOS_V2/cmsis_os2.h"
 205              		.file 4 "Core/Inc/main.h"
 206              		.file 5 "<built-in>"
ARM GAS  /tmp/cceeKmOh.s 			page 8

