ARM GAS  /tmp/ccsQ7Ueg.s 			page 1


   1              		.cpu cortex-m7
   2              		.eabi_attribute 28, 1
   3              		.eabi_attribute 20, 1
   4              		.eabi_attribute 21, 1
   5              		.eabi_attribute 23, 3
   6              		.eabi_attribute 24, 1
   7              		.eabi_attribute 25, 1
   8              		.eabi_attribute 26, 1
   9              		.eabi_attribute 30, 1
  10              		.eabi_attribute 34, 1
  11              		.eabi_attribute 18, 4
  12              		.file	"gpio.c"
  13              		.text
  14              	.Ltext0:
  15              		.cfi_sections	.debug_frame
  16              		.section	.text.prv_led_state,"ax",%progbits
  17              		.align	1
  18              		.arch armv7e-m
  19              		.syntax unified
  20              		.thumb
  21              		.thumb_func
  22              		.fpu fpv5-d16
  24              	prv_led_state:
  25              	.LVL0:
  26              	.LFB145:
  27              		.file 1 "Core/Src/gpio.c"
   1:Core/Src/gpio.c **** /* USER CODE BEGIN Header */
   2:Core/Src/gpio.c **** /**
   3:Core/Src/gpio.c ****   ******************************************************************************
   4:Core/Src/gpio.c ****   * @file    gpio.c
   5:Core/Src/gpio.c ****   * @brief   This file provides code for the configuration
   6:Core/Src/gpio.c ****   *          of all used GPIO pins.
   7:Core/Src/gpio.c ****   ******************************************************************************
   8:Core/Src/gpio.c ****   * @attention
   9:Core/Src/gpio.c ****   *
  10:Core/Src/gpio.c ****   * Copyright (c) 2025 STMicroelectronics.
  11:Core/Src/gpio.c ****   * All rights reserved.
  12:Core/Src/gpio.c ****   *
  13:Core/Src/gpio.c ****   * This software is licensed under terms that can be found in the LICENSE file
  14:Core/Src/gpio.c ****   * in the root directory of this software component.
  15:Core/Src/gpio.c ****   * If no LICENSE file comes with this software, it is provided AS-IS.
  16:Core/Src/gpio.c ****   *
  17:Core/Src/gpio.c ****   ******************************************************************************
  18:Core/Src/gpio.c ****   */
  19:Core/Src/gpio.c **** /* USER CODE END Header */
  20:Core/Src/gpio.c **** 
  21:Core/Src/gpio.c **** /* Includes ------------------------------------------------------------------*/
  22:Core/Src/gpio.c **** #include "gpio.h"
  23:Core/Src/gpio.c **** 
  24:Core/Src/gpio.c **** /* USER CODE BEGIN 0 */
  25:Core/Src/gpio.c **** 
  26:Core/Src/gpio.c **** /* USER CODE END 0 */
  27:Core/Src/gpio.c **** 
  28:Core/Src/gpio.c **** /*----------------------------------------------------------------------------*/
  29:Core/Src/gpio.c **** /* Configure GPIO                                                             */
  30:Core/Src/gpio.c **** /*----------------------------------------------------------------------------*/
  31:Core/Src/gpio.c **** /* USER CODE BEGIN 1 */
ARM GAS  /tmp/ccsQ7Ueg.s 			page 2


  32:Core/Src/gpio.c **** 
  33:Core/Src/gpio.c **** /* USER CODE END 1 */
  34:Core/Src/gpio.c **** 
  35:Core/Src/gpio.c **** /** Configure pins
  36:Core/Src/gpio.c ****      PA14 (JTCK/SWCLK)   ------> DEBUG_JTCK-SWCLK
  37:Core/Src/gpio.c ****      PA13 (JTMS/SWDIO)   ------> DEBUG_JTMS-SWDIO
  38:Core/Src/gpio.c ****      PC14-OSC32_IN (OSC32_IN)   ------> RCC_OSC32_IN
  39:Core/Src/gpio.c ****      PC15-OSC32_OUT (OSC32_OUT)   ------> RCC_OSC32_OUT
  40:Core/Src/gpio.c ****      PH0-OSC_IN (PH0)   ------> RCC_OSC_IN
  41:Core/Src/gpio.c ****      PC7   ------> DEBUG_TRGIO
  42:Core/Src/gpio.c ****      PH1-OSC_OUT (PH1)   ------> RCC_OSC_OUT
  43:Core/Src/gpio.c **** */
  44:Core/Src/gpio.c **** void MX_GPIO_Init(void)
  45:Core/Src/gpio.c **** {
  46:Core/Src/gpio.c **** 
  47:Core/Src/gpio.c ****   GPIO_InitTypeDef GPIO_InitStruct = {0};
  48:Core/Src/gpio.c **** 
  49:Core/Src/gpio.c ****   /* GPIO Ports Clock Enable */
  50:Core/Src/gpio.c ****   __HAL_RCC_GPIOE_CLK_ENABLE();
  51:Core/Src/gpio.c ****   __HAL_RCC_GPIOB_CLK_ENABLE();
  52:Core/Src/gpio.c ****   __HAL_RCC_GPIOG_CLK_ENABLE();
  53:Core/Src/gpio.c ****   __HAL_RCC_GPIOD_CLK_ENABLE();
  54:Core/Src/gpio.c ****   __HAL_RCC_GPIOC_CLK_ENABLE();
  55:Core/Src/gpio.c ****   __HAL_RCC_GPIOA_CLK_ENABLE();
  56:Core/Src/gpio.c ****   __HAL_RCC_GPIOI_CLK_ENABLE();
  57:Core/Src/gpio.c ****   __HAL_RCC_GPIOH_CLK_ENABLE();
  58:Core/Src/gpio.c ****   __HAL_RCC_GPIOF_CLK_ENABLE();
  59:Core/Src/gpio.c **** 
  60:Core/Src/gpio.c ****   /*Configure GPIO pin Output Level */
  61:Core/Src/gpio.c ****   HAL_GPIO_WritePin(GPIOE, LED_RED_PIN | LED_GREEN_PIN | LED_BLUE_PIN, LED_OFF_LEVEL);
  62:Core/Src/gpio.c **** 
  63:Core/Src/gpio.c ****   /*Configure GPIO pins : PE3 PE4 PE5 */
  64:Core/Src/gpio.c ****   GPIO_InitStruct.Pin = LED_RED_PIN|LED_GREEN_PIN|LED_BLUE_PIN;
  65:Core/Src/gpio.c ****   GPIO_InitStruct.Mode = GPIO_MODE_OUTPUT_PP;
  66:Core/Src/gpio.c ****   GPIO_InitStruct.Pull = GPIO_NOPULL;
  67:Core/Src/gpio.c ****   GPIO_InitStruct.Speed = GPIO_SPEED_FREQ_VERY_HIGH;
  68:Core/Src/gpio.c ****   HAL_GPIO_Init(GPIOE, &GPIO_InitStruct);
  69:Core/Src/gpio.c **** 
  70:Core/Src/gpio.c ****   /*Configure GPIO pins : PE1 PE0 PE6 PE13
  71:Core/Src/gpio.c ****                            PE8 PE9 PE11 PE14
  72:Core/Src/gpio.c ****                            PE7 PE10 PE12 PE15 */
  73:Core/Src/gpio.c ****   GPIO_InitStruct.Pin = GPIO_PIN_1|GPIO_PIN_0|GPIO_PIN_6|GPIO_PIN_13
  74:Core/Src/gpio.c ****                           |GPIO_PIN_8|GPIO_PIN_9|GPIO_PIN_11|GPIO_PIN_14
  75:Core/Src/gpio.c ****                           |GPIO_PIN_7|GPIO_PIN_10|GPIO_PIN_12|GPIO_PIN_15;
  76:Core/Src/gpio.c ****   GPIO_InitStruct.Mode = GPIO_MODE_ANALOG;
  77:Core/Src/gpio.c ****   GPIO_InitStruct.Pull = GPIO_NOPULL;
  78:Core/Src/gpio.c ****   HAL_GPIO_Init(GPIOE, &GPIO_InitStruct);
  79:Core/Src/gpio.c **** 
  80:Core/Src/gpio.c ****   /*Configure GPIO pins : PB8 PB5 PB4 PB3
  81:Core/Src/gpio.c ****                            PB9 PB7 PB6 PB2
  82:Core/Src/gpio.c ****                            PB12 PB13 PB1 PB0
  83:Core/Src/gpio.c ****                            PB10 PB11 PB14 PB15 */
  84:Core/Src/gpio.c ****   GPIO_InitStruct.Pin = GPIO_PIN_8|GPIO_PIN_5|GPIO_PIN_4|GPIO_PIN_3
  85:Core/Src/gpio.c ****                           |GPIO_PIN_9|GPIO_PIN_7|GPIO_PIN_6|GPIO_PIN_2
  86:Core/Src/gpio.c ****                           |GPIO_PIN_12|GPIO_PIN_13|GPIO_PIN_1|GPIO_PIN_0
  87:Core/Src/gpio.c ****                           |GPIO_PIN_10|GPIO_PIN_11|GPIO_PIN_14|GPIO_PIN_15;
  88:Core/Src/gpio.c ****   GPIO_InitStruct.Mode = GPIO_MODE_ANALOG;
ARM GAS  /tmp/ccsQ7Ueg.s 			page 3


  89:Core/Src/gpio.c ****   GPIO_InitStruct.Pull = GPIO_NOPULL;
  90:Core/Src/gpio.c ****   HAL_GPIO_Init(GPIOB, &GPIO_InitStruct);
  91:Core/Src/gpio.c **** 
  92:Core/Src/gpio.c ****   /*Configure GPIO pins : PG14 PG13 PG15 PG12
  93:Core/Src/gpio.c ****                            PG11 PG10 PG9 PG8
  94:Core/Src/gpio.c ****                            PG7 PG5 PG4 PG3
  95:Core/Src/gpio.c ****                            PG2 PG1 PG0 */
  96:Core/Src/gpio.c ****   GPIO_InitStruct.Pin = GPIO_PIN_14|GPIO_PIN_13|GPIO_PIN_15|GPIO_PIN_12
  97:Core/Src/gpio.c ****                           |GPIO_PIN_11|GPIO_PIN_10|GPIO_PIN_9|GPIO_PIN_8
  98:Core/Src/gpio.c ****                           |GPIO_PIN_7|GPIO_PIN_5|GPIO_PIN_4|GPIO_PIN_3
  99:Core/Src/gpio.c ****                           |GPIO_PIN_2|GPIO_PIN_1|GPIO_PIN_0;
 100:Core/Src/gpio.c ****   GPIO_InitStruct.Mode = GPIO_MODE_ANALOG;
 101:Core/Src/gpio.c ****   GPIO_InitStruct.Pull = GPIO_NOPULL;
 102:Core/Src/gpio.c ****   HAL_GPIO_Init(GPIOG, &GPIO_InitStruct);
 103:Core/Src/gpio.c **** 
 104:Core/Src/gpio.c ****   /*Configure GPIO pins : PD7 PD6 PD0 PD5
 105:Core/Src/gpio.c ****                            PD1 PD4 PD3 PD2
 106:Core/Src/gpio.c ****                            PD15 PD14 PD10 PD9
 107:Core/Src/gpio.c ****                            PD8 */
 108:Core/Src/gpio.c ****   GPIO_InitStruct.Pin = GPIO_PIN_7|GPIO_PIN_6|GPIO_PIN_0|GPIO_PIN_5
 109:Core/Src/gpio.c ****                           |GPIO_PIN_1|GPIO_PIN_4|GPIO_PIN_3|GPIO_PIN_2
 110:Core/Src/gpio.c ****                           |GPIO_PIN_15|GPIO_PIN_14|GPIO_PIN_10|GPIO_PIN_9
 111:Core/Src/gpio.c ****                           |GPIO_PIN_8;
 112:Core/Src/gpio.c ****   GPIO_InitStruct.Mode = GPIO_MODE_ANALOG;
 113:Core/Src/gpio.c ****   GPIO_InitStruct.Pull = GPIO_NOPULL;
 114:Core/Src/gpio.c ****   HAL_GPIO_Init(GPIOD, &GPIO_InitStruct);
 115:Core/Src/gpio.c **** 
 116:Core/Src/gpio.c ****   /*Configure GPIO pins : PC12 PC11 PC10 PC13
 117:Core/Src/gpio.c ****                            PC9 PC8 PC6 PC0
 118:Core/Src/gpio.c ****                            PC1 PC2 PC3 PC4
 119:Core/Src/gpio.c ****                            PC5 */
 120:Core/Src/gpio.c ****   GPIO_InitStruct.Pin = GPIO_PIN_12|GPIO_PIN_11|GPIO_PIN_10|GPIO_PIN_13
 121:Core/Src/gpio.c ****                           |GPIO_PIN_9|GPIO_PIN_8|GPIO_PIN_6|GPIO_PIN_0
 122:Core/Src/gpio.c ****                           |GPIO_PIN_1|GPIO_PIN_2|GPIO_PIN_3|GPIO_PIN_4
 123:Core/Src/gpio.c ****                           |GPIO_PIN_5;
 124:Core/Src/gpio.c ****   GPIO_InitStruct.Mode = GPIO_MODE_ANALOG;
 125:Core/Src/gpio.c ****   GPIO_InitStruct.Pull = GPIO_NOPULL;
 126:Core/Src/gpio.c ****   HAL_GPIO_Init(GPIOC, &GPIO_InitStruct);
 127:Core/Src/gpio.c **** 
 128:Core/Src/gpio.c ****   /*Configure GPIO pins : PA15 PA12 PA11 PA10
 129:Core/Src/gpio.c ****                            PA9 PA8 PA1 PA0
 130:Core/Src/gpio.c ****                            PA4 PA2 PA6 PA5
 131:Core/Src/gpio.c ****                            PA3 PA7 */
 132:Core/Src/gpio.c ****   GPIO_InitStruct.Pin = GPIO_PIN_15|GPIO_PIN_12|GPIO_PIN_11|GPIO_PIN_10
 133:Core/Src/gpio.c ****                           |GPIO_PIN_9|GPIO_PIN_8|GPIO_PIN_1|GPIO_PIN_0
 134:Core/Src/gpio.c ****                           |GPIO_PIN_4|GPIO_PIN_2|GPIO_PIN_6|GPIO_PIN_5
 135:Core/Src/gpio.c ****                           |GPIO_PIN_3|GPIO_PIN_7;
 136:Core/Src/gpio.c ****   GPIO_InitStruct.Mode = GPIO_MODE_ANALOG;
 137:Core/Src/gpio.c ****   GPIO_InitStruct.Pull = GPIO_NOPULL;
 138:Core/Src/gpio.c ****   HAL_GPIO_Init(GPIOA, &GPIO_InitStruct);
 139:Core/Src/gpio.c **** 
 140:Core/Src/gpio.c ****   /*Configure GPIO pins : PI7 PI6 PI5 PI3
 141:Core/Src/gpio.c ****                            PI2 PI8 PI9 PI4
 142:Core/Src/gpio.c ****                            PI1 PI10 PI11 PI0 */
 143:Core/Src/gpio.c ****   GPIO_InitStruct.Pin = GPIO_PIN_7|GPIO_PIN_6|GPIO_PIN_5|GPIO_PIN_3
 144:Core/Src/gpio.c ****                           |GPIO_PIN_2|GPIO_PIN_8|GPIO_PIN_9|GPIO_PIN_4
 145:Core/Src/gpio.c ****                           |GPIO_PIN_1|GPIO_PIN_10|GPIO_PIN_11|GPIO_PIN_0;
ARM GAS  /tmp/ccsQ7Ueg.s 			page 4


 146:Core/Src/gpio.c ****   GPIO_InitStruct.Mode = GPIO_MODE_ANALOG;
 147:Core/Src/gpio.c ****   GPIO_InitStruct.Pull = GPIO_NOPULL;
 148:Core/Src/gpio.c ****   HAL_GPIO_Init(GPIOI, &GPIO_InitStruct);
 149:Core/Src/gpio.c **** 
 150:Core/Src/gpio.c ****   /*Configure GPIO pins : PH15 PH13 PH14 PH2
 151:Core/Src/gpio.c ****                            PH3 PH4 PH5 PH12
 152:Core/Src/gpio.c ****                            PH11 PH10 PH6 PH8
 153:Core/Src/gpio.c ****                            PH9 PH7 */
 154:Core/Src/gpio.c ****   GPIO_InitStruct.Pin = GPIO_PIN_15|GPIO_PIN_13|GPIO_PIN_14|GPIO_PIN_2
 155:Core/Src/gpio.c ****                           |GPIO_PIN_3|GPIO_PIN_4|GPIO_PIN_5|GPIO_PIN_12
 156:Core/Src/gpio.c ****                           |GPIO_PIN_11|GPIO_PIN_10|GPIO_PIN_6|GPIO_PIN_8
 157:Core/Src/gpio.c ****                           |GPIO_PIN_9|GPIO_PIN_7;
 158:Core/Src/gpio.c ****   GPIO_InitStruct.Mode = GPIO_MODE_ANALOG;
 159:Core/Src/gpio.c ****   GPIO_InitStruct.Pull = GPIO_NOPULL;
 160:Core/Src/gpio.c ****   HAL_GPIO_Init(GPIOH, &GPIO_InitStruct);
 161:Core/Src/gpio.c **** 
 162:Core/Src/gpio.c ****   /*Configure GPIO pins : PF0 PF2 PF1 PF3
 163:Core/Src/gpio.c ****                            PF4 PF7 PF6 PF5
 164:Core/Src/gpio.c ****                            PF9 PF8 PF13 PF12
 165:Core/Src/gpio.c ****                            PF15 PF11 PF14 */
 166:Core/Src/gpio.c ****   GPIO_InitStruct.Pin = GPIO_PIN_0|GPIO_PIN_2|GPIO_PIN_1|GPIO_PIN_3
 167:Core/Src/gpio.c ****                           |GPIO_PIN_4|GPIO_PIN_7|GPIO_PIN_6|GPIO_PIN_5
 168:Core/Src/gpio.c ****                           |GPIO_PIN_9|GPIO_PIN_8|GPIO_PIN_13|GPIO_PIN_12
 169:Core/Src/gpio.c ****                           |GPIO_PIN_15|GPIO_PIN_11|GPIO_PIN_14;
 170:Core/Src/gpio.c ****   GPIO_InitStruct.Mode = GPIO_MODE_ANALOG;
 171:Core/Src/gpio.c ****   GPIO_InitStruct.Pull = GPIO_NOPULL;
 172:Core/Src/gpio.c ****   HAL_GPIO_Init(GPIOF, &GPIO_InitStruct);
 173:Core/Src/gpio.c **** 
 174:Core/Src/gpio.c **** }
 175:Core/Src/gpio.c **** 
 176:Core/Src/gpio.c **** /* USER CODE BEGIN 2 */
 177:Core/Src/gpio.c **** 
 178:Core/Src/gpio.c **** /* USER CODE END 2 */
 179:Core/Src/gpio.c **** 
 180:Core/Src/gpio.c **** /* USER CODE BEGIN 3 */
 181:Core/Src/gpio.c **** static GPIO_PinState prv_led_state(bool on)
 182:Core/Src/gpio.c **** {
  28              		.loc 1 182 1 view -0
  29              		.cfi_startproc
  30              		@ args = 0, pretend = 0, frame = 0
  31              		@ frame_needed = 0, uses_anonymous_args = 0
  32              		@ link register save eliminated.
 183:Core/Src/gpio.c ****   return on ? LED_ON_LEVEL : LED_OFF_LEVEL;
  33              		.loc 1 183 3 view .LVU1
 184:Core/Src/gpio.c **** }
  34              		.loc 1 184 1 is_stmt 0 view .LVU2
  35 0000 7047     		bx	lr
  36              		.cfi_endproc
  37              	.LFE145:
  39              		.section	.text.MX_GPIO_Init,"ax",%progbits
  40              		.align	1
  41              		.global	MX_GPIO_Init
  42              		.syntax unified
  43              		.thumb
  44              		.thumb_func
  45              		.fpu fpv5-d16
  47              	MX_GPIO_Init:
ARM GAS  /tmp/ccsQ7Ueg.s 			page 5


  48              	.LFB144:
  45:Core/Src/gpio.c **** 
  49              		.loc 1 45 1 is_stmt 1 view -0
  50              		.cfi_startproc
  51              		@ args = 0, pretend = 0, frame = 56
  52              		@ frame_needed = 0, uses_anonymous_args = 0
  53 0000 70B5     		push	{r4, r5, r6, lr}
  54              	.LCFI0:
  55              		.cfi_def_cfa_offset 16
  56              		.cfi_offset 4, -16
  57              		.cfi_offset 5, -12
  58              		.cfi_offset 6, -8
  59              		.cfi_offset 14, -4
  60 0002 8EB0     		sub	sp, sp, #56
  61              	.LCFI1:
  62              		.cfi_def_cfa_offset 72
  47:Core/Src/gpio.c **** 
  63              		.loc 1 47 3 view .LVU4
  47:Core/Src/gpio.c **** 
  64              		.loc 1 47 20 is_stmt 0 view .LVU5
  65 0004 0024     		movs	r4, #0
  66 0006 0994     		str	r4, [sp, #36]
  67 0008 0A94     		str	r4, [sp, #40]
  68 000a 0B94     		str	r4, [sp, #44]
  69 000c 0C94     		str	r4, [sp, #48]
  70 000e 0D94     		str	r4, [sp, #52]
  50:Core/Src/gpio.c ****   __HAL_RCC_GPIOB_CLK_ENABLE();
  71              		.loc 1 50 3 is_stmt 1 view .LVU6
  72              	.LBB2:
  50:Core/Src/gpio.c ****   __HAL_RCC_GPIOB_CLK_ENABLE();
  73              		.loc 1 50 3 view .LVU7
  50:Core/Src/gpio.c ****   __HAL_RCC_GPIOB_CLK_ENABLE();
  74              		.loc 1 50 3 view .LVU8
  75 0010 684B     		ldr	r3, .L4
  76 0012 D3F8E020 		ldr	r2, [r3, #224]
  77 0016 42F01002 		orr	r2, r2, #16
  78 001a C3F8E020 		str	r2, [r3, #224]
  50:Core/Src/gpio.c ****   __HAL_RCC_GPIOB_CLK_ENABLE();
  79              		.loc 1 50 3 view .LVU9
  80 001e D3F8E020 		ldr	r2, [r3, #224]
  81 0022 02F01002 		and	r2, r2, #16
  82 0026 0092     		str	r2, [sp]
  50:Core/Src/gpio.c ****   __HAL_RCC_GPIOB_CLK_ENABLE();
  83              		.loc 1 50 3 view .LVU10
  84 0028 009A     		ldr	r2, [sp]
  85              	.LBE2:
  50:Core/Src/gpio.c ****   __HAL_RCC_GPIOB_CLK_ENABLE();
  86              		.loc 1 50 3 view .LVU11
  51:Core/Src/gpio.c ****   __HAL_RCC_GPIOG_CLK_ENABLE();
  87              		.loc 1 51 3 view .LVU12
  88              	.LBB3:
  51:Core/Src/gpio.c ****   __HAL_RCC_GPIOG_CLK_ENABLE();
  89              		.loc 1 51 3 view .LVU13
  51:Core/Src/gpio.c ****   __HAL_RCC_GPIOG_CLK_ENABLE();
  90              		.loc 1 51 3 view .LVU14
  91 002a D3F8E020 		ldr	r2, [r3, #224]
  92 002e 42F00202 		orr	r2, r2, #2
ARM GAS  /tmp/ccsQ7Ueg.s 			page 6


  93 0032 C3F8E020 		str	r2, [r3, #224]
  51:Core/Src/gpio.c ****   __HAL_RCC_GPIOG_CLK_ENABLE();
  94              		.loc 1 51 3 view .LVU15
  95 0036 D3F8E020 		ldr	r2, [r3, #224]
  96 003a 02F00202 		and	r2, r2, #2
  97 003e 0192     		str	r2, [sp, #4]
  51:Core/Src/gpio.c ****   __HAL_RCC_GPIOG_CLK_ENABLE();
  98              		.loc 1 51 3 view .LVU16
  99 0040 019A     		ldr	r2, [sp, #4]
 100              	.LBE3:
  51:Core/Src/gpio.c ****   __HAL_RCC_GPIOG_CLK_ENABLE();
 101              		.loc 1 51 3 view .LVU17
  52:Core/Src/gpio.c ****   __HAL_RCC_GPIOD_CLK_ENABLE();
 102              		.loc 1 52 3 view .LVU18
 103              	.LBB4:
  52:Core/Src/gpio.c ****   __HAL_RCC_GPIOD_CLK_ENABLE();
 104              		.loc 1 52 3 view .LVU19
  52:Core/Src/gpio.c ****   __HAL_RCC_GPIOD_CLK_ENABLE();
 105              		.loc 1 52 3 view .LVU20
 106 0042 D3F8E020 		ldr	r2, [r3, #224]
 107 0046 42F04002 		orr	r2, r2, #64
 108 004a C3F8E020 		str	r2, [r3, #224]
  52:Core/Src/gpio.c ****   __HAL_RCC_GPIOD_CLK_ENABLE();
 109              		.loc 1 52 3 view .LVU21
 110 004e D3F8E020 		ldr	r2, [r3, #224]
 111 0052 02F04002 		and	r2, r2, #64
 112 0056 0292     		str	r2, [sp, #8]
  52:Core/Src/gpio.c ****   __HAL_RCC_GPIOD_CLK_ENABLE();
 113              		.loc 1 52 3 view .LVU22
 114 0058 029A     		ldr	r2, [sp, #8]
 115              	.LBE4:
  52:Core/Src/gpio.c ****   __HAL_RCC_GPIOD_CLK_ENABLE();
 116              		.loc 1 52 3 view .LVU23
  53:Core/Src/gpio.c ****   __HAL_RCC_GPIOC_CLK_ENABLE();
 117              		.loc 1 53 3 view .LVU24
 118              	.LBB5:
  53:Core/Src/gpio.c ****   __HAL_RCC_GPIOC_CLK_ENABLE();
 119              		.loc 1 53 3 view .LVU25
  53:Core/Src/gpio.c ****   __HAL_RCC_GPIOC_CLK_ENABLE();
 120              		.loc 1 53 3 view .LVU26
 121 005a D3F8E020 		ldr	r2, [r3, #224]
 122 005e 42F00802 		orr	r2, r2, #8
 123 0062 C3F8E020 		str	r2, [r3, #224]
  53:Core/Src/gpio.c ****   __HAL_RCC_GPIOC_CLK_ENABLE();
 124              		.loc 1 53 3 view .LVU27
 125 0066 D3F8E020 		ldr	r2, [r3, #224]
 126 006a 02F00802 		and	r2, r2, #8
 127 006e 0392     		str	r2, [sp, #12]
  53:Core/Src/gpio.c ****   __HAL_RCC_GPIOC_CLK_ENABLE();
 128              		.loc 1 53 3 view .LVU28
 129 0070 039A     		ldr	r2, [sp, #12]
 130              	.LBE5:
  53:Core/Src/gpio.c ****   __HAL_RCC_GPIOC_CLK_ENABLE();
 131              		.loc 1 53 3 view .LVU29
  54:Core/Src/gpio.c ****   __HAL_RCC_GPIOA_CLK_ENABLE();
 132              		.loc 1 54 3 view .LVU30
 133              	.LBB6:
ARM GAS  /tmp/ccsQ7Ueg.s 			page 7


  54:Core/Src/gpio.c ****   __HAL_RCC_GPIOA_CLK_ENABLE();
 134              		.loc 1 54 3 view .LVU31
  54:Core/Src/gpio.c ****   __HAL_RCC_GPIOA_CLK_ENABLE();
 135              		.loc 1 54 3 view .LVU32
 136 0072 D3F8E020 		ldr	r2, [r3, #224]
 137 0076 42F00402 		orr	r2, r2, #4
 138 007a C3F8E020 		str	r2, [r3, #224]
  54:Core/Src/gpio.c ****   __HAL_RCC_GPIOA_CLK_ENABLE();
 139              		.loc 1 54 3 view .LVU33
 140 007e D3F8E020 		ldr	r2, [r3, #224]
 141 0082 02F00402 		and	r2, r2, #4
 142 0086 0492     		str	r2, [sp, #16]
  54:Core/Src/gpio.c ****   __HAL_RCC_GPIOA_CLK_ENABLE();
 143              		.loc 1 54 3 view .LVU34
 144 0088 049A     		ldr	r2, [sp, #16]
 145              	.LBE6:
  54:Core/Src/gpio.c ****   __HAL_RCC_GPIOA_CLK_ENABLE();
 146              		.loc 1 54 3 view .LVU35
  55:Core/Src/gpio.c ****   __HAL_RCC_GPIOI_CLK_ENABLE();
 147              		.loc 1 55 3 view .LVU36
 148              	.LBB7:
  55:Core/Src/gpio.c ****   __HAL_RCC_GPIOI_CLK_ENABLE();
 149              		.loc 1 55 3 view .LVU37
  55:Core/Src/gpio.c ****   __HAL_RCC_GPIOI_CLK_ENABLE();
 150              		.loc 1 55 3 view .LVU38
 151 008a D3F8E020 		ldr	r2, [r3, #224]
 152 008e 42F00102 		orr	r2, r2, #1
 153 0092 C3F8E020 		str	r2, [r3, #224]
  55:Core/Src/gpio.c ****   __HAL_RCC_GPIOI_CLK_ENABLE();
 154              		.loc 1 55 3 view .LVU39
 155 0096 D3F8E020 		ldr	r2, [r3, #224]
 156 009a 02F00102 		and	r2, r2, #1
 157 009e 0592     		str	r2, [sp, #20]
  55:Core/Src/gpio.c ****   __HAL_RCC_GPIOI_CLK_ENABLE();
 158              		.loc 1 55 3 view .LVU40
 159 00a0 059A     		ldr	r2, [sp, #20]
 160              	.LBE7:
  55:Core/Src/gpio.c ****   __HAL_RCC_GPIOI_CLK_ENABLE();
 161              		.loc 1 55 3 view .LVU41
  56:Core/Src/gpio.c ****   __HAL_RCC_GPIOH_CLK_ENABLE();
 162              		.loc 1 56 3 view .LVU42
 163              	.LBB8:
  56:Core/Src/gpio.c ****   __HAL_RCC_GPIOH_CLK_ENABLE();
 164              		.loc 1 56 3 view .LVU43
  56:Core/Src/gpio.c ****   __HAL_RCC_GPIOH_CLK_ENABLE();
 165              		.loc 1 56 3 view .LVU44
 166 00a2 D3F8E020 		ldr	r2, [r3, #224]
 167 00a6 42F48072 		orr	r2, r2, #256
 168 00aa C3F8E020 		str	r2, [r3, #224]
  56:Core/Src/gpio.c ****   __HAL_RCC_GPIOH_CLK_ENABLE();
 169              		.loc 1 56 3 view .LVU45
 170 00ae D3F8E020 		ldr	r2, [r3, #224]
 171 00b2 02F48072 		and	r2, r2, #256
 172 00b6 0692     		str	r2, [sp, #24]
  56:Core/Src/gpio.c ****   __HAL_RCC_GPIOH_CLK_ENABLE();
 173              		.loc 1 56 3 view .LVU46
 174 00b8 069A     		ldr	r2, [sp, #24]
ARM GAS  /tmp/ccsQ7Ueg.s 			page 8


 175              	.LBE8:
  56:Core/Src/gpio.c ****   __HAL_RCC_GPIOH_CLK_ENABLE();
 176              		.loc 1 56 3 view .LVU47
  57:Core/Src/gpio.c ****   __HAL_RCC_GPIOF_CLK_ENABLE();
 177              		.loc 1 57 3 view .LVU48
 178              	.LBB9:
  57:Core/Src/gpio.c ****   __HAL_RCC_GPIOF_CLK_ENABLE();
 179              		.loc 1 57 3 view .LVU49
  57:Core/Src/gpio.c ****   __HAL_RCC_GPIOF_CLK_ENABLE();
 180              		.loc 1 57 3 view .LVU50
 181 00ba D3F8E020 		ldr	r2, [r3, #224]
 182 00be 42F08002 		orr	r2, r2, #128
 183 00c2 C3F8E020 		str	r2, [r3, #224]
  57:Core/Src/gpio.c ****   __HAL_RCC_GPIOF_CLK_ENABLE();
 184              		.loc 1 57 3 view .LVU51
 185 00c6 D3F8E020 		ldr	r2, [r3, #224]
 186 00ca 02F08002 		and	r2, r2, #128
 187 00ce 0792     		str	r2, [sp, #28]
  57:Core/Src/gpio.c ****   __HAL_RCC_GPIOF_CLK_ENABLE();
 188              		.loc 1 57 3 view .LVU52
 189 00d0 079A     		ldr	r2, [sp, #28]
 190              	.LBE9:
  57:Core/Src/gpio.c ****   __HAL_RCC_GPIOF_CLK_ENABLE();
 191              		.loc 1 57 3 view .LVU53
  58:Core/Src/gpio.c **** 
 192              		.loc 1 58 3 view .LVU54
 193              	.LBB10:
  58:Core/Src/gpio.c **** 
 194              		.loc 1 58 3 view .LVU55
  58:Core/Src/gpio.c **** 
 195              		.loc 1 58 3 view .LVU56
 196 00d2 D3F8E020 		ldr	r2, [r3, #224]
 197 00d6 42F02002 		orr	r2, r2, #32
 198 00da C3F8E020 		str	r2, [r3, #224]
  58:Core/Src/gpio.c **** 
 199              		.loc 1 58 3 view .LVU57
 200 00de D3F8E030 		ldr	r3, [r3, #224]
 201 00e2 03F02003 		and	r3, r3, #32
 202 00e6 0893     		str	r3, [sp, #32]
  58:Core/Src/gpio.c **** 
 203              		.loc 1 58 3 view .LVU58
 204 00e8 089B     		ldr	r3, [sp, #32]
 205              	.LBE10:
  58:Core/Src/gpio.c **** 
 206              		.loc 1 58 3 view .LVU59
  61:Core/Src/gpio.c **** 
 207              		.loc 1 61 3 view .LVU60
 208 00ea 334E     		ldr	r6, .L4+4
 209 00ec 2246     		mov	r2, r4
 210 00ee 3821     		movs	r1, #56
 211 00f0 3046     		mov	r0, r6
 212 00f2 FFF7FEFF 		bl	HAL_GPIO_WritePin
 213              	.LVL1:
  64:Core/Src/gpio.c ****   GPIO_InitStruct.Mode = GPIO_MODE_OUTPUT_PP;
 214              		.loc 1 64 3 view .LVU61
  64:Core/Src/gpio.c ****   GPIO_InitStruct.Mode = GPIO_MODE_OUTPUT_PP;
 215              		.loc 1 64 23 is_stmt 0 view .LVU62
ARM GAS  /tmp/ccsQ7Ueg.s 			page 9


 216 00f6 3823     		movs	r3, #56
 217 00f8 0993     		str	r3, [sp, #36]
  65:Core/Src/gpio.c ****   GPIO_InitStruct.Pull = GPIO_NOPULL;
 218              		.loc 1 65 3 is_stmt 1 view .LVU63
  65:Core/Src/gpio.c ****   GPIO_InitStruct.Pull = GPIO_NOPULL;
 219              		.loc 1 65 24 is_stmt 0 view .LVU64
 220 00fa 0123     		movs	r3, #1
 221 00fc 0A93     		str	r3, [sp, #40]
  66:Core/Src/gpio.c ****   GPIO_InitStruct.Speed = GPIO_SPEED_FREQ_VERY_HIGH;
 222              		.loc 1 66 3 is_stmt 1 view .LVU65
  66:Core/Src/gpio.c ****   GPIO_InitStruct.Speed = GPIO_SPEED_FREQ_VERY_HIGH;
 223              		.loc 1 66 24 is_stmt 0 view .LVU66
 224 00fe 0B94     		str	r4, [sp, #44]
  67:Core/Src/gpio.c ****   HAL_GPIO_Init(GPIOE, &GPIO_InitStruct);
 225              		.loc 1 67 3 is_stmt 1 view .LVU67
  67:Core/Src/gpio.c ****   HAL_GPIO_Init(GPIOE, &GPIO_InitStruct);
 226              		.loc 1 67 25 is_stmt 0 view .LVU68
 227 0100 0325     		movs	r5, #3
 228 0102 0C95     		str	r5, [sp, #48]
  68:Core/Src/gpio.c **** 
 229              		.loc 1 68 3 is_stmt 1 view .LVU69
 230 0104 09A9     		add	r1, sp, #36
 231 0106 3046     		mov	r0, r6
 232 0108 FFF7FEFF 		bl	HAL_GPIO_Init
 233              	.LVL2:
  73:Core/Src/gpio.c ****                           |GPIO_PIN_8|GPIO_PIN_9|GPIO_PIN_11|GPIO_PIN_14
 234              		.loc 1 73 3 view .LVU70
  73:Core/Src/gpio.c ****                           |GPIO_PIN_8|GPIO_PIN_9|GPIO_PIN_11|GPIO_PIN_14
 235              		.loc 1 73 23 is_stmt 0 view .LVU71
 236 010c 4FF6C373 		movw	r3, #65475
 237 0110 0993     		str	r3, [sp, #36]
  76:Core/Src/gpio.c ****   GPIO_InitStruct.Pull = GPIO_NOPULL;
 238              		.loc 1 76 3 is_stmt 1 view .LVU72
  76:Core/Src/gpio.c ****   GPIO_InitStruct.Pull = GPIO_NOPULL;
 239              		.loc 1 76 24 is_stmt 0 view .LVU73
 240 0112 0A95     		str	r5, [sp, #40]
  77:Core/Src/gpio.c ****   HAL_GPIO_Init(GPIOE, &GPIO_InitStruct);
 241              		.loc 1 77 3 is_stmt 1 view .LVU74
  77:Core/Src/gpio.c ****   HAL_GPIO_Init(GPIOE, &GPIO_InitStruct);
 242              		.loc 1 77 24 is_stmt 0 view .LVU75
 243 0114 0B94     		str	r4, [sp, #44]
  78:Core/Src/gpio.c **** 
 244              		.loc 1 78 3 is_stmt 1 view .LVU76
 245 0116 09A9     		add	r1, sp, #36
 246 0118 3046     		mov	r0, r6
 247 011a FFF7FEFF 		bl	HAL_GPIO_Init
 248              	.LVL3:
  84:Core/Src/gpio.c ****                           |GPIO_PIN_9|GPIO_PIN_7|GPIO_PIN_6|GPIO_PIN_2
 249              		.loc 1 84 3 view .LVU77
  84:Core/Src/gpio.c ****                           |GPIO_PIN_9|GPIO_PIN_7|GPIO_PIN_6|GPIO_PIN_2
 250              		.loc 1 84 23 is_stmt 0 view .LVU78
 251 011e 4FF6FF73 		movw	r3, #65535
 252 0122 0993     		str	r3, [sp, #36]
  88:Core/Src/gpio.c ****   GPIO_InitStruct.Pull = GPIO_NOPULL;
 253              		.loc 1 88 3 is_stmt 1 view .LVU79
  88:Core/Src/gpio.c ****   GPIO_InitStruct.Pull = GPIO_NOPULL;
 254              		.loc 1 88 24 is_stmt 0 view .LVU80
ARM GAS  /tmp/ccsQ7Ueg.s 			page 10


 255 0124 0A95     		str	r5, [sp, #40]
  89:Core/Src/gpio.c ****   HAL_GPIO_Init(GPIOB, &GPIO_InitStruct);
 256              		.loc 1 89 3 is_stmt 1 view .LVU81
  89:Core/Src/gpio.c ****   HAL_GPIO_Init(GPIOB, &GPIO_InitStruct);
 257              		.loc 1 89 24 is_stmt 0 view .LVU82
 258 0126 0B94     		str	r4, [sp, #44]
  90:Core/Src/gpio.c **** 
 259              		.loc 1 90 3 is_stmt 1 view .LVU83
 260 0128 09A9     		add	r1, sp, #36
 261 012a 2448     		ldr	r0, .L4+8
 262 012c FFF7FEFF 		bl	HAL_GPIO_Init
 263              	.LVL4:
  96:Core/Src/gpio.c ****                           |GPIO_PIN_11|GPIO_PIN_10|GPIO_PIN_9|GPIO_PIN_8
 264              		.loc 1 96 3 view .LVU84
  96:Core/Src/gpio.c ****                           |GPIO_PIN_11|GPIO_PIN_10|GPIO_PIN_9|GPIO_PIN_8
 265              		.loc 1 96 23 is_stmt 0 view .LVU85
 266 0130 4FF6BF73 		movw	r3, #65471
 267 0134 0993     		str	r3, [sp, #36]
 100:Core/Src/gpio.c ****   GPIO_InitStruct.Pull = GPIO_NOPULL;
 268              		.loc 1 100 3 is_stmt 1 view .LVU86
 100:Core/Src/gpio.c ****   GPIO_InitStruct.Pull = GPIO_NOPULL;
 269              		.loc 1 100 24 is_stmt 0 view .LVU87
 270 0136 0A95     		str	r5, [sp, #40]
 101:Core/Src/gpio.c ****   HAL_GPIO_Init(GPIOG, &GPIO_InitStruct);
 271              		.loc 1 101 3 is_stmt 1 view .LVU88
 101:Core/Src/gpio.c ****   HAL_GPIO_Init(GPIOG, &GPIO_InitStruct);
 272              		.loc 1 101 24 is_stmt 0 view .LVU89
 273 0138 0B94     		str	r4, [sp, #44]
 102:Core/Src/gpio.c **** 
 274              		.loc 1 102 3 is_stmt 1 view .LVU90
 275 013a 09A9     		add	r1, sp, #36
 276 013c 2048     		ldr	r0, .L4+12
 277 013e FFF7FEFF 		bl	HAL_GPIO_Init
 278              	.LVL5:
 108:Core/Src/gpio.c ****                           |GPIO_PIN_1|GPIO_PIN_4|GPIO_PIN_3|GPIO_PIN_2
 279              		.loc 1 108 3 view .LVU91
 108:Core/Src/gpio.c ****                           |GPIO_PIN_1|GPIO_PIN_4|GPIO_PIN_3|GPIO_PIN_2
 280              		.loc 1 108 23 is_stmt 0 view .LVU92
 281 0142 4CF2FF73 		movw	r3, #51199
 282 0146 0993     		str	r3, [sp, #36]
 112:Core/Src/gpio.c ****   GPIO_InitStruct.Pull = GPIO_NOPULL;
 283              		.loc 1 112 3 is_stmt 1 view .LVU93
 112:Core/Src/gpio.c ****   GPIO_InitStruct.Pull = GPIO_NOPULL;
 284              		.loc 1 112 24 is_stmt 0 view .LVU94
 285 0148 0A95     		str	r5, [sp, #40]
 113:Core/Src/gpio.c ****   HAL_GPIO_Init(GPIOD, &GPIO_InitStruct);
 286              		.loc 1 113 3 is_stmt 1 view .LVU95
 113:Core/Src/gpio.c ****   HAL_GPIO_Init(GPIOD, &GPIO_InitStruct);
 287              		.loc 1 113 24 is_stmt 0 view .LVU96
 288 014a 0B94     		str	r4, [sp, #44]
 114:Core/Src/gpio.c **** 
 289              		.loc 1 114 3 is_stmt 1 view .LVU97
 290 014c 09A9     		add	r1, sp, #36
 291 014e 1D48     		ldr	r0, .L4+16
 292 0150 FFF7FEFF 		bl	HAL_GPIO_Init
 293              	.LVL6:
 120:Core/Src/gpio.c ****                           |GPIO_PIN_9|GPIO_PIN_8|GPIO_PIN_6|GPIO_PIN_0
ARM GAS  /tmp/ccsQ7Ueg.s 			page 11


 294              		.loc 1 120 3 view .LVU98
 120:Core/Src/gpio.c ****                           |GPIO_PIN_9|GPIO_PIN_8|GPIO_PIN_6|GPIO_PIN_0
 295              		.loc 1 120 23 is_stmt 0 view .LVU99
 296 0154 43F67F73 		movw	r3, #16255
 297 0158 0993     		str	r3, [sp, #36]
 124:Core/Src/gpio.c ****   GPIO_InitStruct.Pull = GPIO_NOPULL;
 298              		.loc 1 124 3 is_stmt 1 view .LVU100
 124:Core/Src/gpio.c ****   GPIO_InitStruct.Pull = GPIO_NOPULL;
 299              		.loc 1 124 24 is_stmt 0 view .LVU101
 300 015a 0A95     		str	r5, [sp, #40]
 125:Core/Src/gpio.c ****   HAL_GPIO_Init(GPIOC, &GPIO_InitStruct);
 301              		.loc 1 125 3 is_stmt 1 view .LVU102
 125:Core/Src/gpio.c ****   HAL_GPIO_Init(GPIOC, &GPIO_InitStruct);
 302              		.loc 1 125 24 is_stmt 0 view .LVU103
 303 015c 0B94     		str	r4, [sp, #44]
 126:Core/Src/gpio.c **** 
 304              		.loc 1 126 3 is_stmt 1 view .LVU104
 305 015e 09A9     		add	r1, sp, #36
 306 0160 1948     		ldr	r0, .L4+20
 307 0162 FFF7FEFF 		bl	HAL_GPIO_Init
 308              	.LVL7:
 132:Core/Src/gpio.c ****                           |GPIO_PIN_9|GPIO_PIN_8|GPIO_PIN_1|GPIO_PIN_0
 309              		.loc 1 132 3 view .LVU105
 132:Core/Src/gpio.c ****                           |GPIO_PIN_9|GPIO_PIN_8|GPIO_PIN_1|GPIO_PIN_0
 310              		.loc 1 132 23 is_stmt 0 view .LVU106
 311 0166 49F6FF73 		movw	r3, #40959
 312 016a 0993     		str	r3, [sp, #36]
 136:Core/Src/gpio.c ****   GPIO_InitStruct.Pull = GPIO_NOPULL;
 313              		.loc 1 136 3 is_stmt 1 view .LVU107
 136:Core/Src/gpio.c ****   GPIO_InitStruct.Pull = GPIO_NOPULL;
 314              		.loc 1 136 24 is_stmt 0 view .LVU108
 315 016c 0A95     		str	r5, [sp, #40]
 137:Core/Src/gpio.c ****   HAL_GPIO_Init(GPIOA, &GPIO_InitStruct);
 316              		.loc 1 137 3 is_stmt 1 view .LVU109
 137:Core/Src/gpio.c ****   HAL_GPIO_Init(GPIOA, &GPIO_InitStruct);
 317              		.loc 1 137 24 is_stmt 0 view .LVU110
 318 016e 0B94     		str	r4, [sp, #44]
 138:Core/Src/gpio.c **** 
 319              		.loc 1 138 3 is_stmt 1 view .LVU111
 320 0170 09A9     		add	r1, sp, #36
 321 0172 1648     		ldr	r0, .L4+24
 322 0174 FFF7FEFF 		bl	HAL_GPIO_Init
 323              	.LVL8:
 143:Core/Src/gpio.c ****                           |GPIO_PIN_2|GPIO_PIN_8|GPIO_PIN_9|GPIO_PIN_4
 324              		.loc 1 143 3 view .LVU112
 143:Core/Src/gpio.c ****                           |GPIO_PIN_2|GPIO_PIN_8|GPIO_PIN_9|GPIO_PIN_4
 325              		.loc 1 143 23 is_stmt 0 view .LVU113
 326 0178 40F6FF73 		movw	r3, #4095
 327 017c 0993     		str	r3, [sp, #36]
 146:Core/Src/gpio.c ****   GPIO_InitStruct.Pull = GPIO_NOPULL;
 328              		.loc 1 146 3 is_stmt 1 view .LVU114
 146:Core/Src/gpio.c ****   GPIO_InitStruct.Pull = GPIO_NOPULL;
 329              		.loc 1 146 24 is_stmt 0 view .LVU115
 330 017e 0A95     		str	r5, [sp, #40]
 147:Core/Src/gpio.c ****   HAL_GPIO_Init(GPIOI, &GPIO_InitStruct);
 331              		.loc 1 147 3 is_stmt 1 view .LVU116
 147:Core/Src/gpio.c ****   HAL_GPIO_Init(GPIOI, &GPIO_InitStruct);
ARM GAS  /tmp/ccsQ7Ueg.s 			page 12


 332              		.loc 1 147 24 is_stmt 0 view .LVU117
 333 0180 0B94     		str	r4, [sp, #44]
 148:Core/Src/gpio.c **** 
 334              		.loc 1 148 3 is_stmt 1 view .LVU118
 335 0182 09A9     		add	r1, sp, #36
 336 0184 1248     		ldr	r0, .L4+28
 337 0186 FFF7FEFF 		bl	HAL_GPIO_Init
 338              	.LVL9:
 154:Core/Src/gpio.c ****                           |GPIO_PIN_3|GPIO_PIN_4|GPIO_PIN_5|GPIO_PIN_12
 339              		.loc 1 154 3 view .LVU119
 154:Core/Src/gpio.c ****                           |GPIO_PIN_3|GPIO_PIN_4|GPIO_PIN_5|GPIO_PIN_12
 340              		.loc 1 154 23 is_stmt 0 view .LVU120
 341 018a 4FF6FC73 		movw	r3, #65532
 342 018e 0993     		str	r3, [sp, #36]
 158:Core/Src/gpio.c ****   GPIO_InitStruct.Pull = GPIO_NOPULL;
 343              		.loc 1 158 3 is_stmt 1 view .LVU121
 158:Core/Src/gpio.c ****   GPIO_InitStruct.Pull = GPIO_NOPULL;
 344              		.loc 1 158 24 is_stmt 0 view .LVU122
 345 0190 0A95     		str	r5, [sp, #40]
 159:Core/Src/gpio.c ****   HAL_GPIO_Init(GPIOH, &GPIO_InitStruct);
 346              		.loc 1 159 3 is_stmt 1 view .LVU123
 159:Core/Src/gpio.c ****   HAL_GPIO_Init(GPIOH, &GPIO_InitStruct);
 347              		.loc 1 159 24 is_stmt 0 view .LVU124
 348 0192 0B94     		str	r4, [sp, #44]
 160:Core/Src/gpio.c **** 
 349              		.loc 1 160 3 is_stmt 1 view .LVU125
 350 0194 09A9     		add	r1, sp, #36
 351 0196 0F48     		ldr	r0, .L4+32
 352 0198 FFF7FEFF 		bl	HAL_GPIO_Init
 353              	.LVL10:
 166:Core/Src/gpio.c ****                           |GPIO_PIN_4|GPIO_PIN_7|GPIO_PIN_6|GPIO_PIN_5
 354              		.loc 1 166 3 view .LVU126
 166:Core/Src/gpio.c ****                           |GPIO_PIN_4|GPIO_PIN_7|GPIO_PIN_6|GPIO_PIN_5
 355              		.loc 1 166 23 is_stmt 0 view .LVU127
 356 019c 4FF6FF33 		movw	r3, #64511
 357 01a0 0993     		str	r3, [sp, #36]
 170:Core/Src/gpio.c ****   GPIO_InitStruct.Pull = GPIO_NOPULL;
 358              		.loc 1 170 3 is_stmt 1 view .LVU128
 170:Core/Src/gpio.c ****   GPIO_InitStruct.Pull = GPIO_NOPULL;
 359              		.loc 1 170 24 is_stmt 0 view .LVU129
 360 01a2 0A95     		str	r5, [sp, #40]
 171:Core/Src/gpio.c ****   HAL_GPIO_Init(GPIOF, &GPIO_InitStruct);
 361              		.loc 1 171 3 is_stmt 1 view .LVU130
 171:Core/Src/gpio.c ****   HAL_GPIO_Init(GPIOF, &GPIO_InitStruct);
 362              		.loc 1 171 24 is_stmt 0 view .LVU131
 363 01a4 0B94     		str	r4, [sp, #44]
 172:Core/Src/gpio.c **** 
 364              		.loc 1 172 3 is_stmt 1 view .LVU132
 365 01a6 09A9     		add	r1, sp, #36
 366 01a8 0B48     		ldr	r0, .L4+36
 367 01aa FFF7FEFF 		bl	HAL_GPIO_Init
 368              	.LVL11:
 174:Core/Src/gpio.c **** 
 369              		.loc 1 174 1 is_stmt 0 view .LVU133
 370 01ae 0EB0     		add	sp, sp, #56
 371              	.LCFI2:
 372              		.cfi_def_cfa_offset 16
ARM GAS  /tmp/ccsQ7Ueg.s 			page 13


 373              		@ sp needed
 374 01b0 70BD     		pop	{r4, r5, r6, pc}
 375              	.L5:
 376 01b2 00BF     		.align	2
 377              	.L4:
 378 01b4 00440258 		.word	1476543488
 379 01b8 00100258 		.word	1476530176
 380 01bc 00040258 		.word	1476527104
 381 01c0 00180258 		.word	1476532224
 382 01c4 000C0258 		.word	1476529152
 383 01c8 00080258 		.word	1476528128
 384 01cc 00000258 		.word	1476526080
 385 01d0 00200258 		.word	1476534272
 386 01d4 001C0258 		.word	1476533248
 387 01d8 00140258 		.word	1476531200
 388              		.cfi_endproc
 389              	.LFE144:
 391              		.section	.text.LED_SetRed,"ax",%progbits
 392              		.align	1
 393              		.global	LED_SetRed
 394              		.syntax unified
 395              		.thumb
 396              		.thumb_func
 397              		.fpu fpv5-d16
 399              	LED_SetRed:
 400              	.LVL12:
 401              	.LFB146:
 185:Core/Src/gpio.c **** 
 186:Core/Src/gpio.c **** void LED_SetRed(bool on)
 187:Core/Src/gpio.c **** {
 402              		.loc 1 187 1 is_stmt 1 view -0
 403              		.cfi_startproc
 404              		@ args = 0, pretend = 0, frame = 0
 405              		@ frame_needed = 0, uses_anonymous_args = 0
 406              		.loc 1 187 1 is_stmt 0 view .LVU135
 407 0000 08B5     		push	{r3, lr}
 408              	.LCFI3:
 409              		.cfi_def_cfa_offset 8
 410              		.cfi_offset 3, -8
 411              		.cfi_offset 14, -4
 188:Core/Src/gpio.c ****   HAL_GPIO_WritePin(LED_RED_PORT, LED_RED_PIN, prv_led_state(on));
 412              		.loc 1 188 3 is_stmt 1 view .LVU136
 413 0002 FFF7FEFF 		bl	prv_led_state
 414              	.LVL13:
 415              		.loc 1 188 3 is_stmt 0 view .LVU137
 416 0006 0246     		mov	r2, r0
 417 0008 0821     		movs	r1, #8
 418 000a 0248     		ldr	r0, .L8
 419 000c FFF7FEFF 		bl	HAL_GPIO_WritePin
 420              	.LVL14:
 189:Core/Src/gpio.c **** }
 421              		.loc 1 189 1 view .LVU138
 422 0010 08BD     		pop	{r3, pc}
 423              	.L9:
 424 0012 00BF     		.align	2
 425              	.L8:
 426 0014 00100258 		.word	1476530176
ARM GAS  /tmp/ccsQ7Ueg.s 			page 14


 427              		.cfi_endproc
 428              	.LFE146:
 430              		.section	.text.LED_SetGreen,"ax",%progbits
 431              		.align	1
 432              		.global	LED_SetGreen
 433              		.syntax unified
 434              		.thumb
 435              		.thumb_func
 436              		.fpu fpv5-d16
 438              	LED_SetGreen:
 439              	.LVL15:
 440              	.LFB147:
 190:Core/Src/gpio.c **** 
 191:Core/Src/gpio.c **** void LED_SetGreen(bool on)
 192:Core/Src/gpio.c **** {
 441              		.loc 1 192 1 is_stmt 1 view -0
 442              		.cfi_startproc
 443              		@ args = 0, pretend = 0, frame = 0
 444              		@ frame_needed = 0, uses_anonymous_args = 0
 445              		.loc 1 192 1 is_stmt 0 view .LVU140
 446 0000 08B5     		push	{r3, lr}
 447              	.LCFI4:
 448              		.cfi_def_cfa_offset 8
 449              		.cfi_offset 3, -8
 450              		.cfi_offset 14, -4
 193:Core/Src/gpio.c ****   HAL_GPIO_WritePin(LED_GREEN_PORT, LED_GREEN_PIN, prv_led_state(on));
 451              		.loc 1 193 3 is_stmt 1 view .LVU141
 452 0002 FFF7FEFF 		bl	prv_led_state
 453              	.LVL16:
 454              		.loc 1 193 3 is_stmt 0 view .LVU142
 455 0006 0246     		mov	r2, r0
 456 0008 1021     		movs	r1, #16
 457 000a 0248     		ldr	r0, .L12
 458 000c FFF7FEFF 		bl	HAL_GPIO_WritePin
 459              	.LVL17:
 194:Core/Src/gpio.c **** }
 460              		.loc 1 194 1 view .LVU143
 461 0010 08BD     		pop	{r3, pc}
 462              	.L13:
 463 0012 00BF     		.align	2
 464              	.L12:
 465 0014 00100258 		.word	1476530176
 466              		.cfi_endproc
 467              	.LFE147:
 469              		.section	.text.LED_SetBlue,"ax",%progbits
 470              		.align	1
 471              		.global	LED_SetBlue
 472              		.syntax unified
 473              		.thumb
 474              		.thumb_func
 475              		.fpu fpv5-d16
 477              	LED_SetBlue:
 478              	.LVL18:
 479              	.LFB148:
 195:Core/Src/gpio.c **** 
 196:Core/Src/gpio.c **** void LED_SetBlue(bool on)
 197:Core/Src/gpio.c **** {
ARM GAS  /tmp/ccsQ7Ueg.s 			page 15


 480              		.loc 1 197 1 is_stmt 1 view -0
 481              		.cfi_startproc
 482              		@ args = 0, pretend = 0, frame = 0
 483              		@ frame_needed = 0, uses_anonymous_args = 0
 484              		.loc 1 197 1 is_stmt 0 view .LVU145
 485 0000 08B5     		push	{r3, lr}
 486              	.LCFI5:
 487              		.cfi_def_cfa_offset 8
 488              		.cfi_offset 3, -8
 489              		.cfi_offset 14, -4
 198:Core/Src/gpio.c ****   HAL_GPIO_WritePin(LED_BLUE_PORT, LED_BLUE_PIN, prv_led_state(on));
 490              		.loc 1 198 3 is_stmt 1 view .LVU146
 491 0002 FFF7FEFF 		bl	prv_led_state
 492              	.LVL19:
 493              		.loc 1 198 3 is_stmt 0 view .LVU147
 494 0006 0246     		mov	r2, r0
 495 0008 2021     		movs	r1, #32
 496 000a 0248     		ldr	r0, .L16
 497 000c FFF7FEFF 		bl	HAL_GPIO_WritePin
 498              	.LVL20:
 199:Core/Src/gpio.c **** }
 499              		.loc 1 199 1 view .LVU148
 500 0010 08BD     		pop	{r3, pc}
 501              	.L17:
 502 0012 00BF     		.align	2
 503              	.L16:
 504 0014 00100258 		.word	1476530176
 505              		.cfi_endproc
 506              	.LFE148:
 508              		.section	.text.LED_SetRGB,"ax",%progbits
 509              		.align	1
 510              		.global	LED_SetRGB
 511              		.syntax unified
 512              		.thumb
 513              		.thumb_func
 514              		.fpu fpv5-d16
 516              	LED_SetRGB:
 517              	.LVL21:
 518              	.LFB149:
 200:Core/Src/gpio.c **** 
 201:Core/Src/gpio.c **** void LED_SetRGB(bool red_on, bool green_on, bool blue_on)
 202:Core/Src/gpio.c **** {
 519              		.loc 1 202 1 is_stmt 1 view -0
 520              		.cfi_startproc
 521              		@ args = 0, pretend = 0, frame = 0
 522              		@ frame_needed = 0, uses_anonymous_args = 0
 523              		.loc 1 202 1 is_stmt 0 view .LVU150
 524 0000 38B5     		push	{r3, r4, r5, lr}
 525              	.LCFI6:
 526              		.cfi_def_cfa_offset 16
 527              		.cfi_offset 3, -16
 528              		.cfi_offset 4, -12
 529              		.cfi_offset 5, -8
 530              		.cfi_offset 14, -4
 531 0002 0D46     		mov	r5, r1
 532 0004 1446     		mov	r4, r2
 203:Core/Src/gpio.c ****   LED_SetRed(red_on);
ARM GAS  /tmp/ccsQ7Ueg.s 			page 16


 533              		.loc 1 203 3 is_stmt 1 view .LVU151
 534 0006 FFF7FEFF 		bl	LED_SetRed
 535              	.LVL22:
 204:Core/Src/gpio.c ****   LED_SetGreen(green_on);
 536              		.loc 1 204 3 view .LVU152
 537 000a 2846     		mov	r0, r5
 538 000c FFF7FEFF 		bl	LED_SetGreen
 539              	.LVL23:
 205:Core/Src/gpio.c ****   LED_SetBlue(blue_on);
 540              		.loc 1 205 3 view .LVU153
 541 0010 2046     		mov	r0, r4
 542 0012 FFF7FEFF 		bl	LED_SetBlue
 543              	.LVL24:
 206:Core/Src/gpio.c **** }
 544              		.loc 1 206 1 is_stmt 0 view .LVU154
 545 0016 38BD     		pop	{r3, r4, r5, pc}
 546              		.cfi_endproc
 547              	.LFE149:
 549              		.section	.text.LED_AllOn,"ax",%progbits
 550              		.align	1
 551              		.global	LED_AllOn
 552              		.syntax unified
 553              		.thumb
 554              		.thumb_func
 555              		.fpu fpv5-d16
 557              	LED_AllOn:
 558              	.LFB150:
 207:Core/Src/gpio.c **** 
 208:Core/Src/gpio.c **** void LED_AllOn(void)
 209:Core/Src/gpio.c **** {
 559              		.loc 1 209 1 is_stmt 1 view -0
 560              		.cfi_startproc
 561              		@ args = 0, pretend = 0, frame = 0
 562              		@ frame_needed = 0, uses_anonymous_args = 0
 563 0000 08B5     		push	{r3, lr}
 564              	.LCFI7:
 565              		.cfi_def_cfa_offset 8
 566              		.cfi_offset 3, -8
 567              		.cfi_offset 14, -4
 210:Core/Src/gpio.c ****   LED_SetRGB(true, true, true);
 568              		.loc 1 210 3 view .LVU156
 569 0002 0122     		movs	r2, #1
 570 0004 1146     		mov	r1, r2
 571 0006 1046     		mov	r0, r2
 572 0008 FFF7FEFF 		bl	LED_SetRGB
 573              	.LVL25:
 211:Core/Src/gpio.c **** }
 574              		.loc 1 211 1 is_stmt 0 view .LVU157
 575 000c 08BD     		pop	{r3, pc}
 576              		.cfi_endproc
 577              	.LFE150:
 579              		.section	.text.LED_AllOff,"ax",%progbits
 580              		.align	1
 581              		.global	LED_AllOff
 582              		.syntax unified
 583              		.thumb
 584              		.thumb_func
ARM GAS  /tmp/ccsQ7Ueg.s 			page 17


 585              		.fpu fpv5-d16
 587              	LED_AllOff:
 588              	.LFB151:
 212:Core/Src/gpio.c **** 
 213:Core/Src/gpio.c **** void LED_AllOff(void)
 214:Core/Src/gpio.c **** {
 589              		.loc 1 214 1 is_stmt 1 view -0
 590              		.cfi_startproc
 591              		@ args = 0, pretend = 0, frame = 0
 592              		@ frame_needed = 0, uses_anonymous_args = 0
 593 0000 08B5     		push	{r3, lr}
 594              	.LCFI8:
 595              		.cfi_def_cfa_offset 8
 596              		.cfi_offset 3, -8
 597              		.cfi_offset 14, -4
 215:Core/Src/gpio.c ****   LED_SetRGB(false, false, false);
 598              		.loc 1 215 3 view .LVU159
 599 0002 0022     		movs	r2, #0
 600 0004 1146     		mov	r1, r2
 601 0006 1046     		mov	r0, r2
 602 0008 FFF7FEFF 		bl	LED_SetRGB
 603              	.LVL26:
 216:Core/Src/gpio.c **** }
 604              		.loc 1 216 1 is_stmt 0 view .LVU160
 605 000c 08BD     		pop	{r3, pc}
 606              		.cfi_endproc
 607              	.LFE151:
 609              		.text
 610              	.Letext0:
 611              		.file 2 "/usr/lib/gcc/arm-none-eabi/10.3.1/include/stdint.h"
 612              		.file 3 "Drivers/CMSIS/Device/ST/STM32H7xx/Include/stm32h753xx.h"
 613              		.file 4 "Drivers/STM32H7xx_HAL_Driver/Inc/stm32h7xx_hal_gpio.h"
ARM GAS  /tmp/ccsQ7Ueg.s 			page 18

