ARM GAS  /tmp/cc7BgiPo.s 			page 1


   1              		.cpu cortex-m7
   2              		.eabi_attribute 28, 1
   3              		.eabi_attribute 20, 1
   4              		.eabi_attribute 21, 1
   5              		.eabi_attribute 23, 3
   6              		.eabi_attribute 24, 1
   7              		.eabi_attribute 25, 1
   8              		.eabi_attribute 26, 1
   9              		.eabi_attribute 30, 1
  10              		.eabi_attribute 34, 1
  11              		.eabi_attribute 18, 4
  12              		.file	"stm32h7xx_hal_i2c_ex.c"
  13              		.text
  14              	.Ltext0:
  15              		.cfi_sections	.debug_frame
  16              		.section	.rodata.HAL_I2CEx_ConfigAnalogFilter.str1.4,"aMS",%progbits,1
  17              		.align	2
  18              	.LC0:
  19 0000 44726976 		.ascii	"Drivers/STM32H7xx_HAL_Driver/Src/stm32h7xx_hal_i2c_"
  19      6572732F 
  19      53544D33 
  19      32483778 
  19      785F4841 
  20 0033 65782E63 		.ascii	"ex.c\000"
  20      00
  21              		.section	.text.HAL_I2CEx_ConfigAnalogFilter,"ax",%progbits
  22              		.align	1
  23              		.global	HAL_I2CEx_ConfigAnalogFilter
  24              		.arch armv7e-m
  25              		.syntax unified
  26              		.thumb
  27              		.thumb_func
  28              		.fpu fpv5-d16
  30              	HAL_I2CEx_ConfigAnalogFilter:
  31              	.LVL0:
  32              	.LFB144:
  33              		.file 1 "Drivers/STM32H7xx_HAL_Driver/Src/stm32h7xx_hal_i2c_ex.c"
   1:Drivers/STM32H7xx_HAL_Driver/Src/stm32h7xx_hal_i2c_ex.c **** /**
   2:Drivers/STM32H7xx_HAL_Driver/Src/stm32h7xx_hal_i2c_ex.c ****   ******************************************************************************
   3:Drivers/STM32H7xx_HAL_Driver/Src/stm32h7xx_hal_i2c_ex.c ****   * @file    stm32h7xx_hal_i2c_ex.c
   4:Drivers/STM32H7xx_HAL_Driver/Src/stm32h7xx_hal_i2c_ex.c ****   * @author  MCD Application Team
   5:Drivers/STM32H7xx_HAL_Driver/Src/stm32h7xx_hal_i2c_ex.c ****   * @brief   I2C Extended HAL module driver.
   6:Drivers/STM32H7xx_HAL_Driver/Src/stm32h7xx_hal_i2c_ex.c ****   *          This file provides firmware functions to manage the following
   7:Drivers/STM32H7xx_HAL_Driver/Src/stm32h7xx_hal_i2c_ex.c ****   *          functionalities of I2C Extended peripheral:
   8:Drivers/STM32H7xx_HAL_Driver/Src/stm32h7xx_hal_i2c_ex.c ****   *           + Filter Mode Functions
   9:Drivers/STM32H7xx_HAL_Driver/Src/stm32h7xx_hal_i2c_ex.c ****   *           + WakeUp Mode Functions
  10:Drivers/STM32H7xx_HAL_Driver/Src/stm32h7xx_hal_i2c_ex.c ****   *           + FastModePlus Functions
  11:Drivers/STM32H7xx_HAL_Driver/Src/stm32h7xx_hal_i2c_ex.c ****   *
  12:Drivers/STM32H7xx_HAL_Driver/Src/stm32h7xx_hal_i2c_ex.c ****   ******************************************************************************
  13:Drivers/STM32H7xx_HAL_Driver/Src/stm32h7xx_hal_i2c_ex.c ****   * @attention
  14:Drivers/STM32H7xx_HAL_Driver/Src/stm32h7xx_hal_i2c_ex.c ****   *
  15:Drivers/STM32H7xx_HAL_Driver/Src/stm32h7xx_hal_i2c_ex.c ****   * Copyright (c) 2017 STMicroelectronics.
  16:Drivers/STM32H7xx_HAL_Driver/Src/stm32h7xx_hal_i2c_ex.c ****   * All rights reserved.
  17:Drivers/STM32H7xx_HAL_Driver/Src/stm32h7xx_hal_i2c_ex.c ****   *
  18:Drivers/STM32H7xx_HAL_Driver/Src/stm32h7xx_hal_i2c_ex.c ****   * This software is licensed under terms that can be found in the LICENSE file
  19:Drivers/STM32H7xx_HAL_Driver/Src/stm32h7xx_hal_i2c_ex.c ****   * in the root directory of this software component.
  20:Drivers/STM32H7xx_HAL_Driver/Src/stm32h7xx_hal_i2c_ex.c ****   * If no LICENSE file comes with this software, it is provided AS-IS.
ARM GAS  /tmp/cc7BgiPo.s 			page 2


  21:Drivers/STM32H7xx_HAL_Driver/Src/stm32h7xx_hal_i2c_ex.c ****   *
  22:Drivers/STM32H7xx_HAL_Driver/Src/stm32h7xx_hal_i2c_ex.c ****   ******************************************************************************
  23:Drivers/STM32H7xx_HAL_Driver/Src/stm32h7xx_hal_i2c_ex.c ****   @verbatim
  24:Drivers/STM32H7xx_HAL_Driver/Src/stm32h7xx_hal_i2c_ex.c ****   ==============================================================================
  25:Drivers/STM32H7xx_HAL_Driver/Src/stm32h7xx_hal_i2c_ex.c ****                ##### I2C peripheral Extended features  #####
  26:Drivers/STM32H7xx_HAL_Driver/Src/stm32h7xx_hal_i2c_ex.c ****   ==============================================================================
  27:Drivers/STM32H7xx_HAL_Driver/Src/stm32h7xx_hal_i2c_ex.c **** 
  28:Drivers/STM32H7xx_HAL_Driver/Src/stm32h7xx_hal_i2c_ex.c ****   [..] Comparing to other previous devices, the I2C interface for STM32H7xx
  29:Drivers/STM32H7xx_HAL_Driver/Src/stm32h7xx_hal_i2c_ex.c ****        devices contains the following additional features
  30:Drivers/STM32H7xx_HAL_Driver/Src/stm32h7xx_hal_i2c_ex.c **** 
  31:Drivers/STM32H7xx_HAL_Driver/Src/stm32h7xx_hal_i2c_ex.c ****        (+) Possibility to disable or enable Analog Noise Filter
  32:Drivers/STM32H7xx_HAL_Driver/Src/stm32h7xx_hal_i2c_ex.c ****        (+) Use of a configured Digital Noise Filter
  33:Drivers/STM32H7xx_HAL_Driver/Src/stm32h7xx_hal_i2c_ex.c ****        (+) Disable or enable wakeup from Stop mode(s)
  34:Drivers/STM32H7xx_HAL_Driver/Src/stm32h7xx_hal_i2c_ex.c ****        (+) Disable or enable Fast Mode Plus
  35:Drivers/STM32H7xx_HAL_Driver/Src/stm32h7xx_hal_i2c_ex.c **** 
  36:Drivers/STM32H7xx_HAL_Driver/Src/stm32h7xx_hal_i2c_ex.c ****                      ##### How to use this driver #####
  37:Drivers/STM32H7xx_HAL_Driver/Src/stm32h7xx_hal_i2c_ex.c ****   ==============================================================================
  38:Drivers/STM32H7xx_HAL_Driver/Src/stm32h7xx_hal_i2c_ex.c ****   [..] This driver provides functions to configure Noise Filter and Wake Up Feature
  39:Drivers/STM32H7xx_HAL_Driver/Src/stm32h7xx_hal_i2c_ex.c ****     (#) Configure I2C Analog noise filter using the function HAL_I2CEx_ConfigAnalogFilter()
  40:Drivers/STM32H7xx_HAL_Driver/Src/stm32h7xx_hal_i2c_ex.c ****     (#) Configure I2C Digital noise filter using the function HAL_I2CEx_ConfigDigitalFilter()
  41:Drivers/STM32H7xx_HAL_Driver/Src/stm32h7xx_hal_i2c_ex.c ****     (#) Configure the enable or disable of I2C Wake Up Mode using the functions :
  42:Drivers/STM32H7xx_HAL_Driver/Src/stm32h7xx_hal_i2c_ex.c ****           (++) HAL_I2CEx_EnableWakeUp()
  43:Drivers/STM32H7xx_HAL_Driver/Src/stm32h7xx_hal_i2c_ex.c ****           (++) HAL_I2CEx_DisableWakeUp()
  44:Drivers/STM32H7xx_HAL_Driver/Src/stm32h7xx_hal_i2c_ex.c ****     (#) Configure the enable or disable of fast mode plus driving capability using the functions :
  45:Drivers/STM32H7xx_HAL_Driver/Src/stm32h7xx_hal_i2c_ex.c ****           (++) HAL_I2CEx_EnableFastModePlus()
  46:Drivers/STM32H7xx_HAL_Driver/Src/stm32h7xx_hal_i2c_ex.c ****           (++) HAL_I2CEx_DisableFastModePlus()
  47:Drivers/STM32H7xx_HAL_Driver/Src/stm32h7xx_hal_i2c_ex.c ****   @endverbatim
  48:Drivers/STM32H7xx_HAL_Driver/Src/stm32h7xx_hal_i2c_ex.c ****   */
  49:Drivers/STM32H7xx_HAL_Driver/Src/stm32h7xx_hal_i2c_ex.c **** 
  50:Drivers/STM32H7xx_HAL_Driver/Src/stm32h7xx_hal_i2c_ex.c **** /* Includes ------------------------------------------------------------------*/
  51:Drivers/STM32H7xx_HAL_Driver/Src/stm32h7xx_hal_i2c_ex.c **** #include "stm32h7xx_hal.h"
  52:Drivers/STM32H7xx_HAL_Driver/Src/stm32h7xx_hal_i2c_ex.c **** 
  53:Drivers/STM32H7xx_HAL_Driver/Src/stm32h7xx_hal_i2c_ex.c **** /** @addtogroup STM32H7xx_HAL_Driver
  54:Drivers/STM32H7xx_HAL_Driver/Src/stm32h7xx_hal_i2c_ex.c ****   * @{
  55:Drivers/STM32H7xx_HAL_Driver/Src/stm32h7xx_hal_i2c_ex.c ****   */
  56:Drivers/STM32H7xx_HAL_Driver/Src/stm32h7xx_hal_i2c_ex.c **** 
  57:Drivers/STM32H7xx_HAL_Driver/Src/stm32h7xx_hal_i2c_ex.c **** /** @defgroup I2CEx I2CEx
  58:Drivers/STM32H7xx_HAL_Driver/Src/stm32h7xx_hal_i2c_ex.c ****   * @brief I2C Extended HAL module driver
  59:Drivers/STM32H7xx_HAL_Driver/Src/stm32h7xx_hal_i2c_ex.c ****   * @{
  60:Drivers/STM32H7xx_HAL_Driver/Src/stm32h7xx_hal_i2c_ex.c ****   */
  61:Drivers/STM32H7xx_HAL_Driver/Src/stm32h7xx_hal_i2c_ex.c **** 
  62:Drivers/STM32H7xx_HAL_Driver/Src/stm32h7xx_hal_i2c_ex.c **** #ifdef HAL_I2C_MODULE_ENABLED
  63:Drivers/STM32H7xx_HAL_Driver/Src/stm32h7xx_hal_i2c_ex.c **** 
  64:Drivers/STM32H7xx_HAL_Driver/Src/stm32h7xx_hal_i2c_ex.c **** /* Private typedef -----------------------------------------------------------*/
  65:Drivers/STM32H7xx_HAL_Driver/Src/stm32h7xx_hal_i2c_ex.c **** /* Private define ------------------------------------------------------------*/
  66:Drivers/STM32H7xx_HAL_Driver/Src/stm32h7xx_hal_i2c_ex.c **** /* Private macro -------------------------------------------------------------*/
  67:Drivers/STM32H7xx_HAL_Driver/Src/stm32h7xx_hal_i2c_ex.c **** /* Private variables ---------------------------------------------------------*/
  68:Drivers/STM32H7xx_HAL_Driver/Src/stm32h7xx_hal_i2c_ex.c **** /* Private function prototypes -----------------------------------------------*/
  69:Drivers/STM32H7xx_HAL_Driver/Src/stm32h7xx_hal_i2c_ex.c **** /* Private functions ---------------------------------------------------------*/
  70:Drivers/STM32H7xx_HAL_Driver/Src/stm32h7xx_hal_i2c_ex.c **** 
  71:Drivers/STM32H7xx_HAL_Driver/Src/stm32h7xx_hal_i2c_ex.c **** /** @defgroup I2CEx_Exported_Functions I2C Extended Exported Functions
  72:Drivers/STM32H7xx_HAL_Driver/Src/stm32h7xx_hal_i2c_ex.c ****   * @{
  73:Drivers/STM32H7xx_HAL_Driver/Src/stm32h7xx_hal_i2c_ex.c ****   */
  74:Drivers/STM32H7xx_HAL_Driver/Src/stm32h7xx_hal_i2c_ex.c **** 
  75:Drivers/STM32H7xx_HAL_Driver/Src/stm32h7xx_hal_i2c_ex.c **** /** @defgroup I2CEx_Exported_Functions_Group1 Filter Mode Functions
  76:Drivers/STM32H7xx_HAL_Driver/Src/stm32h7xx_hal_i2c_ex.c ****   * @brief    Filter Mode Functions
  77:Drivers/STM32H7xx_HAL_Driver/Src/stm32h7xx_hal_i2c_ex.c ****   *
ARM GAS  /tmp/cc7BgiPo.s 			page 3


  78:Drivers/STM32H7xx_HAL_Driver/Src/stm32h7xx_hal_i2c_ex.c **** @verbatim
  79:Drivers/STM32H7xx_HAL_Driver/Src/stm32h7xx_hal_i2c_ex.c ****  ===============================================================================
  80:Drivers/STM32H7xx_HAL_Driver/Src/stm32h7xx_hal_i2c_ex.c ****                       ##### Filter Mode Functions #####
  81:Drivers/STM32H7xx_HAL_Driver/Src/stm32h7xx_hal_i2c_ex.c ****  ===============================================================================
  82:Drivers/STM32H7xx_HAL_Driver/Src/stm32h7xx_hal_i2c_ex.c ****     [..] This section provides functions allowing to:
  83:Drivers/STM32H7xx_HAL_Driver/Src/stm32h7xx_hal_i2c_ex.c ****       (+) Configure Noise Filters
  84:Drivers/STM32H7xx_HAL_Driver/Src/stm32h7xx_hal_i2c_ex.c **** 
  85:Drivers/STM32H7xx_HAL_Driver/Src/stm32h7xx_hal_i2c_ex.c **** @endverbatim
  86:Drivers/STM32H7xx_HAL_Driver/Src/stm32h7xx_hal_i2c_ex.c ****   * @{
  87:Drivers/STM32H7xx_HAL_Driver/Src/stm32h7xx_hal_i2c_ex.c ****   */
  88:Drivers/STM32H7xx_HAL_Driver/Src/stm32h7xx_hal_i2c_ex.c **** 
  89:Drivers/STM32H7xx_HAL_Driver/Src/stm32h7xx_hal_i2c_ex.c **** /**
  90:Drivers/STM32H7xx_HAL_Driver/Src/stm32h7xx_hal_i2c_ex.c ****   * @brief  Configure I2C Analog noise filter.
  91:Drivers/STM32H7xx_HAL_Driver/Src/stm32h7xx_hal_i2c_ex.c ****   * @param  hi2c Pointer to a I2C_HandleTypeDef structure that contains
  92:Drivers/STM32H7xx_HAL_Driver/Src/stm32h7xx_hal_i2c_ex.c ****   *                the configuration information for the specified I2Cx peripheral.
  93:Drivers/STM32H7xx_HAL_Driver/Src/stm32h7xx_hal_i2c_ex.c ****   * @param  AnalogFilter New state of the Analog filter.
  94:Drivers/STM32H7xx_HAL_Driver/Src/stm32h7xx_hal_i2c_ex.c ****   * @retval HAL status
  95:Drivers/STM32H7xx_HAL_Driver/Src/stm32h7xx_hal_i2c_ex.c ****   */
  96:Drivers/STM32H7xx_HAL_Driver/Src/stm32h7xx_hal_i2c_ex.c **** HAL_StatusTypeDef HAL_I2CEx_ConfigAnalogFilter(I2C_HandleTypeDef *hi2c, uint32_t AnalogFilter)
  97:Drivers/STM32H7xx_HAL_Driver/Src/stm32h7xx_hal_i2c_ex.c **** {
  34              		.loc 1 97 1 view -0
  35              		.cfi_startproc
  36              		@ args = 0, pretend = 0, frame = 0
  37              		@ frame_needed = 0, uses_anonymous_args = 0
  38              		.loc 1 97 1 is_stmt 0 view .LVU1
  39 0000 38B5     		push	{r3, r4, r5, lr}
  40              	.LCFI0:
  41              		.cfi_def_cfa_offset 16
  42              		.cfi_offset 3, -16
  43              		.cfi_offset 4, -12
  44              		.cfi_offset 5, -8
  45              		.cfi_offset 14, -4
  46 0002 0446     		mov	r4, r0
  47 0004 0D46     		mov	r5, r1
  98:Drivers/STM32H7xx_HAL_Driver/Src/stm32h7xx_hal_i2c_ex.c ****   /* Check the parameters */
  99:Drivers/STM32H7xx_HAL_Driver/Src/stm32h7xx_hal_i2c_ex.c ****   assert_param(IS_I2C_ALL_INSTANCE(hi2c->Instance));
  48              		.loc 1 99 3 is_stmt 1 view .LVU2
  49 0006 0368     		ldr	r3, [r0]
  50 0008 2349     		ldr	r1, .L9
  51              	.LVL1:
  52              		.loc 1 99 3 is_stmt 0 view .LVU3
  53 000a 244A     		ldr	r2, .L9+4
  54 000c 8B42     		cmp	r3, r1
  55 000e 18BF     		it	ne
  56 0010 9342     		cmpne	r3, r2
  57 0012 0AD0     		beq	.L2
  58              		.loc 1 99 3 discriminator 1 view .LVU4
  59 0014 02F58062 		add	r2, r2, #1024
  60 0018 9342     		cmp	r3, r2
  61 001a 06D0     		beq	.L2
  62              		.loc 1 99 3 discriminator 2 view .LVU5
  63 001c 204A     		ldr	r2, .L9+8
  64 001e 9342     		cmp	r3, r2
  65 0020 03D0     		beq	.L2
  66              		.loc 1 99 3 discriminator 3 view .LVU6
  67 0022 6321     		movs	r1, #99
  68 0024 1F48     		ldr	r0, .L9+12
ARM GAS  /tmp/cc7BgiPo.s 			page 4


  69              	.LVL2:
  70              		.loc 1 99 3 discriminator 3 view .LVU7
  71 0026 FFF7FEFF 		bl	assert_failed
  72              	.LVL3:
  73              	.L2:
 100:Drivers/STM32H7xx_HAL_Driver/Src/stm32h7xx_hal_i2c_ex.c ****   assert_param(IS_I2C_ANALOG_FILTER(AnalogFilter));
  74              		.loc 1 100 3 is_stmt 1 view .LVU8
  75 002a 002D     		cmp	r5, #0
  76 002c 18BF     		it	ne
  77 002e B5F5805F 		cmpne	r5, #4096
  78 0032 28D1     		bne	.L8
  79              	.L3:
 101:Drivers/STM32H7xx_HAL_Driver/Src/stm32h7xx_hal_i2c_ex.c **** 
 102:Drivers/STM32H7xx_HAL_Driver/Src/stm32h7xx_hal_i2c_ex.c ****   if (hi2c->State == HAL_I2C_STATE_READY)
  80              		.loc 1 102 3 view .LVU9
  81              		.loc 1 102 11 is_stmt 0 view .LVU10
  82 0034 94F84130 		ldrb	r3, [r4, #65]	@ zero_extendqisi2
  83 0038 DBB2     		uxtb	r3, r3
  84              		.loc 1 102 6 view .LVU11
  85 003a 202B     		cmp	r3, #32
  86 003c 28D1     		bne	.L5
 103:Drivers/STM32H7xx_HAL_Driver/Src/stm32h7xx_hal_i2c_ex.c ****   {
 104:Drivers/STM32H7xx_HAL_Driver/Src/stm32h7xx_hal_i2c_ex.c ****     /* Process Locked */
 105:Drivers/STM32H7xx_HAL_Driver/Src/stm32h7xx_hal_i2c_ex.c ****     __HAL_LOCK(hi2c);
  87              		.loc 1 105 5 is_stmt 1 view .LVU12
  88              		.loc 1 105 5 view .LVU13
  89 003e 94F84030 		ldrb	r3, [r4, #64]	@ zero_extendqisi2
  90 0042 012B     		cmp	r3, #1
  91 0044 26D0     		beq	.L6
  92              		.loc 1 105 5 discriminator 2 view .LVU14
  93 0046 0123     		movs	r3, #1
  94 0048 84F84030 		strb	r3, [r4, #64]
  95              		.loc 1 105 5 discriminator 2 view .LVU15
 106:Drivers/STM32H7xx_HAL_Driver/Src/stm32h7xx_hal_i2c_ex.c **** 
 107:Drivers/STM32H7xx_HAL_Driver/Src/stm32h7xx_hal_i2c_ex.c ****     hi2c->State = HAL_I2C_STATE_BUSY;
  96              		.loc 1 107 5 discriminator 2 view .LVU16
  97              		.loc 1 107 17 is_stmt 0 discriminator 2 view .LVU17
  98 004c 2423     		movs	r3, #36
  99 004e 84F84130 		strb	r3, [r4, #65]
 108:Drivers/STM32H7xx_HAL_Driver/Src/stm32h7xx_hal_i2c_ex.c **** 
 109:Drivers/STM32H7xx_HAL_Driver/Src/stm32h7xx_hal_i2c_ex.c ****     /* Disable the selected I2C peripheral */
 110:Drivers/STM32H7xx_HAL_Driver/Src/stm32h7xx_hal_i2c_ex.c ****     __HAL_I2C_DISABLE(hi2c);
 100              		.loc 1 110 5 is_stmt 1 discriminator 2 view .LVU18
 101 0052 2268     		ldr	r2, [r4]
 102 0054 1368     		ldr	r3, [r2]
 103 0056 23F00103 		bic	r3, r3, #1
 104 005a 1360     		str	r3, [r2]
 111:Drivers/STM32H7xx_HAL_Driver/Src/stm32h7xx_hal_i2c_ex.c **** 
 112:Drivers/STM32H7xx_HAL_Driver/Src/stm32h7xx_hal_i2c_ex.c ****     /* Reset I2Cx ANOFF bit */
 113:Drivers/STM32H7xx_HAL_Driver/Src/stm32h7xx_hal_i2c_ex.c ****     hi2c->Instance->CR1 &= ~(I2C_CR1_ANFOFF);
 105              		.loc 1 113 5 discriminator 2 view .LVU19
 106              		.loc 1 113 9 is_stmt 0 discriminator 2 view .LVU20
 107 005c 2268     		ldr	r2, [r4]
 108              		.loc 1 113 25 discriminator 2 view .LVU21
 109 005e 1368     		ldr	r3, [r2]
 110 0060 23F48053 		bic	r3, r3, #4096
 111 0064 1360     		str	r3, [r2]
ARM GAS  /tmp/cc7BgiPo.s 			page 5


 114:Drivers/STM32H7xx_HAL_Driver/Src/stm32h7xx_hal_i2c_ex.c **** 
 115:Drivers/STM32H7xx_HAL_Driver/Src/stm32h7xx_hal_i2c_ex.c ****     /* Set analog filter bit*/
 116:Drivers/STM32H7xx_HAL_Driver/Src/stm32h7xx_hal_i2c_ex.c ****     hi2c->Instance->CR1 |= AnalogFilter;
 112              		.loc 1 116 5 is_stmt 1 discriminator 2 view .LVU22
 113              		.loc 1 116 9 is_stmt 0 discriminator 2 view .LVU23
 114 0066 2368     		ldr	r3, [r4]
 115              		.loc 1 116 25 discriminator 2 view .LVU24
 116 0068 1968     		ldr	r1, [r3]
 117 006a 0D43     		orrs	r5, r5, r1
 118              	.LVL4:
 119              		.loc 1 116 25 discriminator 2 view .LVU25
 120 006c 1D60     		str	r5, [r3]
 117:Drivers/STM32H7xx_HAL_Driver/Src/stm32h7xx_hal_i2c_ex.c **** 
 118:Drivers/STM32H7xx_HAL_Driver/Src/stm32h7xx_hal_i2c_ex.c ****     __HAL_I2C_ENABLE(hi2c);
 121              		.loc 1 118 5 is_stmt 1 discriminator 2 view .LVU26
 122 006e 2268     		ldr	r2, [r4]
 123 0070 1368     		ldr	r3, [r2]
 124 0072 43F00103 		orr	r3, r3, #1
 125 0076 1360     		str	r3, [r2]
 119:Drivers/STM32H7xx_HAL_Driver/Src/stm32h7xx_hal_i2c_ex.c **** 
 120:Drivers/STM32H7xx_HAL_Driver/Src/stm32h7xx_hal_i2c_ex.c ****     hi2c->State = HAL_I2C_STATE_READY;
 126              		.loc 1 120 5 discriminator 2 view .LVU27
 127              		.loc 1 120 17 is_stmt 0 discriminator 2 view .LVU28
 128 0078 2023     		movs	r3, #32
 129 007a 84F84130 		strb	r3, [r4, #65]
 121:Drivers/STM32H7xx_HAL_Driver/Src/stm32h7xx_hal_i2c_ex.c **** 
 122:Drivers/STM32H7xx_HAL_Driver/Src/stm32h7xx_hal_i2c_ex.c ****     /* Process Unlocked */
 123:Drivers/STM32H7xx_HAL_Driver/Src/stm32h7xx_hal_i2c_ex.c ****     __HAL_UNLOCK(hi2c);
 130              		.loc 1 123 5 is_stmt 1 discriminator 2 view .LVU29
 131              		.loc 1 123 5 discriminator 2 view .LVU30
 132 007e 0020     		movs	r0, #0
 133 0080 84F84000 		strb	r0, [r4, #64]
 134              		.loc 1 123 5 discriminator 2 view .LVU31
 124:Drivers/STM32H7xx_HAL_Driver/Src/stm32h7xx_hal_i2c_ex.c **** 
 125:Drivers/STM32H7xx_HAL_Driver/Src/stm32h7xx_hal_i2c_ex.c ****     return HAL_OK;
 135              		.loc 1 125 5 discriminator 2 view .LVU32
 136              	.L4:
 126:Drivers/STM32H7xx_HAL_Driver/Src/stm32h7xx_hal_i2c_ex.c ****   }
 127:Drivers/STM32H7xx_HAL_Driver/Src/stm32h7xx_hal_i2c_ex.c ****   else
 128:Drivers/STM32H7xx_HAL_Driver/Src/stm32h7xx_hal_i2c_ex.c ****   {
 129:Drivers/STM32H7xx_HAL_Driver/Src/stm32h7xx_hal_i2c_ex.c ****     return HAL_BUSY;
 130:Drivers/STM32H7xx_HAL_Driver/Src/stm32h7xx_hal_i2c_ex.c ****   }
 131:Drivers/STM32H7xx_HAL_Driver/Src/stm32h7xx_hal_i2c_ex.c **** }
 137              		.loc 1 131 1 is_stmt 0 view .LVU33
 138 0084 38BD     		pop	{r3, r4, r5, pc}
 139              	.LVL5:
 140              	.L8:
 100:Drivers/STM32H7xx_HAL_Driver/Src/stm32h7xx_hal_i2c_ex.c **** 
 141              		.loc 1 100 3 discriminator 1 view .LVU34
 142 0086 6421     		movs	r1, #100
 143 0088 0648     		ldr	r0, .L9+12
 144 008a FFF7FEFF 		bl	assert_failed
 145              	.LVL6:
 146 008e D1E7     		b	.L3
 147              	.L5:
 129:Drivers/STM32H7xx_HAL_Driver/Src/stm32h7xx_hal_i2c_ex.c ****   }
 148              		.loc 1 129 12 view .LVU35
ARM GAS  /tmp/cc7BgiPo.s 			page 6


 149 0090 0220     		movs	r0, #2
 150 0092 F7E7     		b	.L4
 151              	.L6:
 105:Drivers/STM32H7xx_HAL_Driver/Src/stm32h7xx_hal_i2c_ex.c **** 
 152              		.loc 1 105 5 view .LVU36
 153 0094 0220     		movs	r0, #2
 154 0096 F5E7     		b	.L4
 155              	.L10:
 156              		.align	2
 157              	.L9:
 158 0098 00540040 		.word	1073763328
 159 009c 00580040 		.word	1073764352
 160 00a0 001C0058 		.word	1476402176
 161 00a4 00000000 		.word	.LC0
 162              		.cfi_endproc
 163              	.LFE144:
 165              		.section	.text.HAL_I2CEx_ConfigDigitalFilter,"ax",%progbits
 166              		.align	1
 167              		.global	HAL_I2CEx_ConfigDigitalFilter
 168              		.syntax unified
 169              		.thumb
 170              		.thumb_func
 171              		.fpu fpv5-d16
 173              	HAL_I2CEx_ConfigDigitalFilter:
 174              	.LVL7:
 175              	.LFB145:
 132:Drivers/STM32H7xx_HAL_Driver/Src/stm32h7xx_hal_i2c_ex.c **** 
 133:Drivers/STM32H7xx_HAL_Driver/Src/stm32h7xx_hal_i2c_ex.c **** /**
 134:Drivers/STM32H7xx_HAL_Driver/Src/stm32h7xx_hal_i2c_ex.c ****   * @brief  Configure I2C Digital noise filter.
 135:Drivers/STM32H7xx_HAL_Driver/Src/stm32h7xx_hal_i2c_ex.c ****   * @param  hi2c Pointer to a I2C_HandleTypeDef structure that contains
 136:Drivers/STM32H7xx_HAL_Driver/Src/stm32h7xx_hal_i2c_ex.c ****   *                the configuration information for the specified I2Cx peripheral.
 137:Drivers/STM32H7xx_HAL_Driver/Src/stm32h7xx_hal_i2c_ex.c ****   * @param  DigitalFilter Coefficient of digital noise filter between Min_Data=0x00 and Max_Data=0x
 138:Drivers/STM32H7xx_HAL_Driver/Src/stm32h7xx_hal_i2c_ex.c ****   * @retval HAL status
 139:Drivers/STM32H7xx_HAL_Driver/Src/stm32h7xx_hal_i2c_ex.c ****   */
 140:Drivers/STM32H7xx_HAL_Driver/Src/stm32h7xx_hal_i2c_ex.c **** HAL_StatusTypeDef HAL_I2CEx_ConfigDigitalFilter(I2C_HandleTypeDef *hi2c, uint32_t DigitalFilter)
 141:Drivers/STM32H7xx_HAL_Driver/Src/stm32h7xx_hal_i2c_ex.c **** {
 176              		.loc 1 141 1 is_stmt 1 view -0
 177              		.cfi_startproc
 178              		@ args = 0, pretend = 0, frame = 0
 179              		@ frame_needed = 0, uses_anonymous_args = 0
 180              		.loc 1 141 1 is_stmt 0 view .LVU38
 181 0000 38B5     		push	{r3, r4, r5, lr}
 182              	.LCFI1:
 183              		.cfi_def_cfa_offset 16
 184              		.cfi_offset 3, -16
 185              		.cfi_offset 4, -12
 186              		.cfi_offset 5, -8
 187              		.cfi_offset 14, -4
 188 0002 0446     		mov	r4, r0
 189 0004 0D46     		mov	r5, r1
 142:Drivers/STM32H7xx_HAL_Driver/Src/stm32h7xx_hal_i2c_ex.c ****   uint32_t tmpreg;
 190              		.loc 1 142 3 is_stmt 1 view .LVU39
 143:Drivers/STM32H7xx_HAL_Driver/Src/stm32h7xx_hal_i2c_ex.c **** 
 144:Drivers/STM32H7xx_HAL_Driver/Src/stm32h7xx_hal_i2c_ex.c ****   /* Check the parameters */
 145:Drivers/STM32H7xx_HAL_Driver/Src/stm32h7xx_hal_i2c_ex.c ****   assert_param(IS_I2C_ALL_INSTANCE(hi2c->Instance));
 191              		.loc 1 145 3 view .LVU40
 192 0006 0368     		ldr	r3, [r0]
ARM GAS  /tmp/cc7BgiPo.s 			page 7


 193 0008 2149     		ldr	r1, .L19
 194              	.LVL8:
 195              		.loc 1 145 3 is_stmt 0 view .LVU41
 196 000a 224A     		ldr	r2, .L19+4
 197 000c 8B42     		cmp	r3, r1
 198 000e 18BF     		it	ne
 199 0010 9342     		cmpne	r3, r2
 200 0012 0AD0     		beq	.L12
 201              		.loc 1 145 3 discriminator 1 view .LVU42
 202 0014 02F58062 		add	r2, r2, #1024
 203 0018 9342     		cmp	r3, r2
 204 001a 06D0     		beq	.L12
 205              		.loc 1 145 3 discriminator 2 view .LVU43
 206 001c 1E4A     		ldr	r2, .L19+8
 207 001e 9342     		cmp	r3, r2
 208 0020 03D0     		beq	.L12
 209              		.loc 1 145 3 discriminator 3 view .LVU44
 210 0022 9121     		movs	r1, #145
 211 0024 1D48     		ldr	r0, .L19+12
 212              	.LVL9:
 213              		.loc 1 145 3 discriminator 3 view .LVU45
 214 0026 FFF7FEFF 		bl	assert_failed
 215              	.LVL10:
 216              	.L12:
 146:Drivers/STM32H7xx_HAL_Driver/Src/stm32h7xx_hal_i2c_ex.c ****   assert_param(IS_I2C_DIGITAL_FILTER(DigitalFilter));
 217              		.loc 1 146 3 is_stmt 1 view .LVU46
 218 002a 0F2D     		cmp	r5, #15
 219 002c 26D8     		bhi	.L18
 220              	.L13:
 147:Drivers/STM32H7xx_HAL_Driver/Src/stm32h7xx_hal_i2c_ex.c **** 
 148:Drivers/STM32H7xx_HAL_Driver/Src/stm32h7xx_hal_i2c_ex.c ****   if (hi2c->State == HAL_I2C_STATE_READY)
 221              		.loc 1 148 3 view .LVU47
 222              		.loc 1 148 11 is_stmt 0 view .LVU48
 223 002e 94F84130 		ldrb	r3, [r4, #65]	@ zero_extendqisi2
 224 0032 DBB2     		uxtb	r3, r3
 225              		.loc 1 148 6 view .LVU49
 226 0034 202B     		cmp	r3, #32
 227 0036 26D1     		bne	.L15
 149:Drivers/STM32H7xx_HAL_Driver/Src/stm32h7xx_hal_i2c_ex.c ****   {
 150:Drivers/STM32H7xx_HAL_Driver/Src/stm32h7xx_hal_i2c_ex.c ****     /* Process Locked */
 151:Drivers/STM32H7xx_HAL_Driver/Src/stm32h7xx_hal_i2c_ex.c ****     __HAL_LOCK(hi2c);
 228              		.loc 1 151 5 is_stmt 1 view .LVU50
 229              		.loc 1 151 5 view .LVU51
 230 0038 94F84030 		ldrb	r3, [r4, #64]	@ zero_extendqisi2
 231 003c 012B     		cmp	r3, #1
 232 003e 24D0     		beq	.L16
 233              		.loc 1 151 5 discriminator 2 view .LVU52
 234 0040 0123     		movs	r3, #1
 235 0042 84F84030 		strb	r3, [r4, #64]
 236              		.loc 1 151 5 discriminator 2 view .LVU53
 152:Drivers/STM32H7xx_HAL_Driver/Src/stm32h7xx_hal_i2c_ex.c **** 
 153:Drivers/STM32H7xx_HAL_Driver/Src/stm32h7xx_hal_i2c_ex.c ****     hi2c->State = HAL_I2C_STATE_BUSY;
 237              		.loc 1 153 5 discriminator 2 view .LVU54
 238              		.loc 1 153 17 is_stmt 0 discriminator 2 view .LVU55
 239 0046 2423     		movs	r3, #36
 240 0048 84F84130 		strb	r3, [r4, #65]
 154:Drivers/STM32H7xx_HAL_Driver/Src/stm32h7xx_hal_i2c_ex.c **** 
ARM GAS  /tmp/cc7BgiPo.s 			page 8


 155:Drivers/STM32H7xx_HAL_Driver/Src/stm32h7xx_hal_i2c_ex.c ****     /* Disable the selected I2C peripheral */
 156:Drivers/STM32H7xx_HAL_Driver/Src/stm32h7xx_hal_i2c_ex.c ****     __HAL_I2C_DISABLE(hi2c);
 241              		.loc 1 156 5 is_stmt 1 discriminator 2 view .LVU56
 242 004c 2268     		ldr	r2, [r4]
 243 004e 1368     		ldr	r3, [r2]
 244 0050 23F00103 		bic	r3, r3, #1
 245 0054 1360     		str	r3, [r2]
 157:Drivers/STM32H7xx_HAL_Driver/Src/stm32h7xx_hal_i2c_ex.c **** 
 158:Drivers/STM32H7xx_HAL_Driver/Src/stm32h7xx_hal_i2c_ex.c ****     /* Get the old register value */
 159:Drivers/STM32H7xx_HAL_Driver/Src/stm32h7xx_hal_i2c_ex.c ****     tmpreg = hi2c->Instance->CR1;
 246              		.loc 1 159 5 discriminator 2 view .LVU57
 247              		.loc 1 159 18 is_stmt 0 discriminator 2 view .LVU58
 248 0056 2368     		ldr	r3, [r4]
 249              		.loc 1 159 12 discriminator 2 view .LVU59
 250 0058 1968     		ldr	r1, [r3]
 251              	.LVL11:
 160:Drivers/STM32H7xx_HAL_Driver/Src/stm32h7xx_hal_i2c_ex.c **** 
 161:Drivers/STM32H7xx_HAL_Driver/Src/stm32h7xx_hal_i2c_ex.c ****     /* Reset I2Cx DNF bits [11:8] */
 162:Drivers/STM32H7xx_HAL_Driver/Src/stm32h7xx_hal_i2c_ex.c ****     tmpreg &= ~(I2C_CR1_DNF);
 252              		.loc 1 162 5 is_stmt 1 discriminator 2 view .LVU60
 253              		.loc 1 162 12 is_stmt 0 discriminator 2 view .LVU61
 254 005a 21F47061 		bic	r1, r1, #3840
 255              	.LVL12:
 163:Drivers/STM32H7xx_HAL_Driver/Src/stm32h7xx_hal_i2c_ex.c **** 
 164:Drivers/STM32H7xx_HAL_Driver/Src/stm32h7xx_hal_i2c_ex.c ****     /* Set I2Cx DNF coefficient */
 165:Drivers/STM32H7xx_HAL_Driver/Src/stm32h7xx_hal_i2c_ex.c ****     tmpreg |= DigitalFilter << 8U;
 256              		.loc 1 165 5 is_stmt 1 discriminator 2 view .LVU62
 257              		.loc 1 165 12 is_stmt 0 discriminator 2 view .LVU63
 258 005e 41EA0525 		orr	r5, r1, r5, lsl #8
 259              	.LVL13:
 166:Drivers/STM32H7xx_HAL_Driver/Src/stm32h7xx_hal_i2c_ex.c **** 
 167:Drivers/STM32H7xx_HAL_Driver/Src/stm32h7xx_hal_i2c_ex.c ****     /* Store the new register value */
 168:Drivers/STM32H7xx_HAL_Driver/Src/stm32h7xx_hal_i2c_ex.c ****     hi2c->Instance->CR1 = tmpreg;
 260              		.loc 1 168 5 is_stmt 1 discriminator 2 view .LVU64
 261              		.loc 1 168 25 is_stmt 0 discriminator 2 view .LVU65
 262 0062 1D60     		str	r5, [r3]
 169:Drivers/STM32H7xx_HAL_Driver/Src/stm32h7xx_hal_i2c_ex.c **** 
 170:Drivers/STM32H7xx_HAL_Driver/Src/stm32h7xx_hal_i2c_ex.c ****     __HAL_I2C_ENABLE(hi2c);
 263              		.loc 1 170 5 is_stmt 1 discriminator 2 view .LVU66
 264 0064 2268     		ldr	r2, [r4]
 265 0066 1368     		ldr	r3, [r2]
 266 0068 43F00103 		orr	r3, r3, #1
 267 006c 1360     		str	r3, [r2]
 171:Drivers/STM32H7xx_HAL_Driver/Src/stm32h7xx_hal_i2c_ex.c **** 
 172:Drivers/STM32H7xx_HAL_Driver/Src/stm32h7xx_hal_i2c_ex.c ****     hi2c->State = HAL_I2C_STATE_READY;
 268              		.loc 1 172 5 discriminator 2 view .LVU67
 269              		.loc 1 172 17 is_stmt 0 discriminator 2 view .LVU68
 270 006e 2023     		movs	r3, #32
 271 0070 84F84130 		strb	r3, [r4, #65]
 173:Drivers/STM32H7xx_HAL_Driver/Src/stm32h7xx_hal_i2c_ex.c **** 
 174:Drivers/STM32H7xx_HAL_Driver/Src/stm32h7xx_hal_i2c_ex.c ****     /* Process Unlocked */
 175:Drivers/STM32H7xx_HAL_Driver/Src/stm32h7xx_hal_i2c_ex.c ****     __HAL_UNLOCK(hi2c);
 272              		.loc 1 175 5 is_stmt 1 discriminator 2 view .LVU69
 273              		.loc 1 175 5 discriminator 2 view .LVU70
 274 0074 0020     		movs	r0, #0
 275 0076 84F84000 		strb	r0, [r4, #64]
 276              		.loc 1 175 5 discriminator 2 view .LVU71
ARM GAS  /tmp/cc7BgiPo.s 			page 9


 176:Drivers/STM32H7xx_HAL_Driver/Src/stm32h7xx_hal_i2c_ex.c **** 
 177:Drivers/STM32H7xx_HAL_Driver/Src/stm32h7xx_hal_i2c_ex.c ****     return HAL_OK;
 277              		.loc 1 177 5 discriminator 2 view .LVU72
 278              	.LVL14:
 279              	.L14:
 178:Drivers/STM32H7xx_HAL_Driver/Src/stm32h7xx_hal_i2c_ex.c ****   }
 179:Drivers/STM32H7xx_HAL_Driver/Src/stm32h7xx_hal_i2c_ex.c ****   else
 180:Drivers/STM32H7xx_HAL_Driver/Src/stm32h7xx_hal_i2c_ex.c ****   {
 181:Drivers/STM32H7xx_HAL_Driver/Src/stm32h7xx_hal_i2c_ex.c ****     return HAL_BUSY;
 182:Drivers/STM32H7xx_HAL_Driver/Src/stm32h7xx_hal_i2c_ex.c ****   }
 183:Drivers/STM32H7xx_HAL_Driver/Src/stm32h7xx_hal_i2c_ex.c **** }
 280              		.loc 1 183 1 is_stmt 0 view .LVU73
 281 007a 38BD     		pop	{r3, r4, r5, pc}
 282              	.LVL15:
 283              	.L18:
 146:Drivers/STM32H7xx_HAL_Driver/Src/stm32h7xx_hal_i2c_ex.c **** 
 284              		.loc 1 146 3 discriminator 1 view .LVU74
 285 007c 9221     		movs	r1, #146
 286 007e 0748     		ldr	r0, .L19+12
 287 0080 FFF7FEFF 		bl	assert_failed
 288              	.LVL16:
 289 0084 D3E7     		b	.L13
 290              	.L15:
 181:Drivers/STM32H7xx_HAL_Driver/Src/stm32h7xx_hal_i2c_ex.c ****   }
 291              		.loc 1 181 12 view .LVU75
 292 0086 0220     		movs	r0, #2
 293 0088 F7E7     		b	.L14
 294              	.L16:
 151:Drivers/STM32H7xx_HAL_Driver/Src/stm32h7xx_hal_i2c_ex.c **** 
 295              		.loc 1 151 5 view .LVU76
 296 008a 0220     		movs	r0, #2
 297 008c F5E7     		b	.L14
 298              	.L20:
 299 008e 00BF     		.align	2
 300              	.L19:
 301 0090 00540040 		.word	1073763328
 302 0094 00580040 		.word	1073764352
 303 0098 001C0058 		.word	1476402176
 304 009c 00000000 		.word	.LC0
 305              		.cfi_endproc
 306              	.LFE145:
 308              		.section	.text.HAL_I2CEx_EnableWakeUp,"ax",%progbits
 309              		.align	1
 310              		.global	HAL_I2CEx_EnableWakeUp
 311              		.syntax unified
 312              		.thumb
 313              		.thumb_func
 314              		.fpu fpv5-d16
 316              	HAL_I2CEx_EnableWakeUp:
 317              	.LVL17:
 318              	.LFB146:
 184:Drivers/STM32H7xx_HAL_Driver/Src/stm32h7xx_hal_i2c_ex.c **** /**
 185:Drivers/STM32H7xx_HAL_Driver/Src/stm32h7xx_hal_i2c_ex.c ****   * @}
 186:Drivers/STM32H7xx_HAL_Driver/Src/stm32h7xx_hal_i2c_ex.c ****   */
 187:Drivers/STM32H7xx_HAL_Driver/Src/stm32h7xx_hal_i2c_ex.c **** 
 188:Drivers/STM32H7xx_HAL_Driver/Src/stm32h7xx_hal_i2c_ex.c **** /** @defgroup I2CEx_Exported_Functions_Group2 WakeUp Mode Functions
 189:Drivers/STM32H7xx_HAL_Driver/Src/stm32h7xx_hal_i2c_ex.c ****   * @brief    WakeUp Mode Functions
ARM GAS  /tmp/cc7BgiPo.s 			page 10


 190:Drivers/STM32H7xx_HAL_Driver/Src/stm32h7xx_hal_i2c_ex.c ****   *
 191:Drivers/STM32H7xx_HAL_Driver/Src/stm32h7xx_hal_i2c_ex.c **** @verbatim
 192:Drivers/STM32H7xx_HAL_Driver/Src/stm32h7xx_hal_i2c_ex.c ****  ===============================================================================
 193:Drivers/STM32H7xx_HAL_Driver/Src/stm32h7xx_hal_i2c_ex.c ****                       ##### WakeUp Mode Functions #####
 194:Drivers/STM32H7xx_HAL_Driver/Src/stm32h7xx_hal_i2c_ex.c ****  ===============================================================================
 195:Drivers/STM32H7xx_HAL_Driver/Src/stm32h7xx_hal_i2c_ex.c ****     [..] This section provides functions allowing to:
 196:Drivers/STM32H7xx_HAL_Driver/Src/stm32h7xx_hal_i2c_ex.c ****       (+) Configure Wake Up Feature
 197:Drivers/STM32H7xx_HAL_Driver/Src/stm32h7xx_hal_i2c_ex.c **** 
 198:Drivers/STM32H7xx_HAL_Driver/Src/stm32h7xx_hal_i2c_ex.c **** @endverbatim
 199:Drivers/STM32H7xx_HAL_Driver/Src/stm32h7xx_hal_i2c_ex.c ****   * @{
 200:Drivers/STM32H7xx_HAL_Driver/Src/stm32h7xx_hal_i2c_ex.c ****   */
 201:Drivers/STM32H7xx_HAL_Driver/Src/stm32h7xx_hal_i2c_ex.c **** 
 202:Drivers/STM32H7xx_HAL_Driver/Src/stm32h7xx_hal_i2c_ex.c **** /**
 203:Drivers/STM32H7xx_HAL_Driver/Src/stm32h7xx_hal_i2c_ex.c ****   * @brief  Enable I2C wakeup from Stop mode(s).
 204:Drivers/STM32H7xx_HAL_Driver/Src/stm32h7xx_hal_i2c_ex.c ****   * @param  hi2c Pointer to a I2C_HandleTypeDef structure that contains
 205:Drivers/STM32H7xx_HAL_Driver/Src/stm32h7xx_hal_i2c_ex.c ****   *                the configuration information for the specified I2Cx peripheral.
 206:Drivers/STM32H7xx_HAL_Driver/Src/stm32h7xx_hal_i2c_ex.c ****   * @retval HAL status
 207:Drivers/STM32H7xx_HAL_Driver/Src/stm32h7xx_hal_i2c_ex.c ****   */
 208:Drivers/STM32H7xx_HAL_Driver/Src/stm32h7xx_hal_i2c_ex.c **** HAL_StatusTypeDef HAL_I2CEx_EnableWakeUp(I2C_HandleTypeDef *hi2c)
 209:Drivers/STM32H7xx_HAL_Driver/Src/stm32h7xx_hal_i2c_ex.c **** {
 319              		.loc 1 209 1 is_stmt 1 view -0
 320              		.cfi_startproc
 321              		@ args = 0, pretend = 0, frame = 0
 322              		@ frame_needed = 0, uses_anonymous_args = 0
 323              		.loc 1 209 1 is_stmt 0 view .LVU78
 324 0000 10B5     		push	{r4, lr}
 325              	.LCFI2:
 326              		.cfi_def_cfa_offset 8
 327              		.cfi_offset 4, -8
 328              		.cfi_offset 14, -4
 329 0002 0446     		mov	r4, r0
 210:Drivers/STM32H7xx_HAL_Driver/Src/stm32h7xx_hal_i2c_ex.c ****   /* Check the parameters */
 211:Drivers/STM32H7xx_HAL_Driver/Src/stm32h7xx_hal_i2c_ex.c ****   assert_param(IS_I2C_WAKEUP_FROMSTOP_INSTANCE(hi2c->Instance));
 330              		.loc 1 211 3 is_stmt 1 view .LVU79
 331 0004 0368     		ldr	r3, [r0]
 332 0006 1D49     		ldr	r1, .L27
 333 0008 1D4A     		ldr	r2, .L27+4
 334 000a 8B42     		cmp	r3, r1
 335 000c 18BF     		it	ne
 336 000e 9342     		cmpne	r3, r2
 337 0010 0AD0     		beq	.L22
 338              		.loc 1 211 3 is_stmt 0 discriminator 1 view .LVU80
 339 0012 02F58062 		add	r2, r2, #1024
 340 0016 9342     		cmp	r3, r2
 341 0018 06D0     		beq	.L22
 342              		.loc 1 211 3 discriminator 2 view .LVU81
 343 001a 1A4A     		ldr	r2, .L27+8
 344 001c 9342     		cmp	r3, r2
 345 001e 03D0     		beq	.L22
 346              		.loc 1 211 3 discriminator 3 view .LVU82
 347 0020 D321     		movs	r1, #211
 348 0022 1948     		ldr	r0, .L27+12
 349              	.LVL18:
 350              		.loc 1 211 3 discriminator 3 view .LVU83
 351 0024 FFF7FEFF 		bl	assert_failed
 352              	.LVL19:
 353              	.L22:
ARM GAS  /tmp/cc7BgiPo.s 			page 11


 212:Drivers/STM32H7xx_HAL_Driver/Src/stm32h7xx_hal_i2c_ex.c **** 
 213:Drivers/STM32H7xx_HAL_Driver/Src/stm32h7xx_hal_i2c_ex.c ****   if (hi2c->State == HAL_I2C_STATE_READY)
 354              		.loc 1 213 3 is_stmt 1 view .LVU84
 355              		.loc 1 213 11 is_stmt 0 view .LVU85
 356 0028 94F84130 		ldrb	r3, [r4, #65]	@ zero_extendqisi2
 357 002c DBB2     		uxtb	r3, r3
 358              		.loc 1 213 6 view .LVU86
 359 002e 202B     		cmp	r3, #32
 360 0030 1FD1     		bne	.L24
 214:Drivers/STM32H7xx_HAL_Driver/Src/stm32h7xx_hal_i2c_ex.c ****   {
 215:Drivers/STM32H7xx_HAL_Driver/Src/stm32h7xx_hal_i2c_ex.c ****     /* Process Locked */
 216:Drivers/STM32H7xx_HAL_Driver/Src/stm32h7xx_hal_i2c_ex.c ****     __HAL_LOCK(hi2c);
 361              		.loc 1 216 5 is_stmt 1 view .LVU87
 362              		.loc 1 216 5 view .LVU88
 363 0032 94F84030 		ldrb	r3, [r4, #64]	@ zero_extendqisi2
 364 0036 012B     		cmp	r3, #1
 365 0038 1DD0     		beq	.L25
 366              		.loc 1 216 5 discriminator 2 view .LVU89
 367 003a 0123     		movs	r3, #1
 368 003c 84F84030 		strb	r3, [r4, #64]
 369              		.loc 1 216 5 discriminator 2 view .LVU90
 217:Drivers/STM32H7xx_HAL_Driver/Src/stm32h7xx_hal_i2c_ex.c **** 
 218:Drivers/STM32H7xx_HAL_Driver/Src/stm32h7xx_hal_i2c_ex.c ****     hi2c->State = HAL_I2C_STATE_BUSY;
 370              		.loc 1 218 5 discriminator 2 view .LVU91
 371              		.loc 1 218 17 is_stmt 0 discriminator 2 view .LVU92
 372 0040 2423     		movs	r3, #36
 373 0042 84F84130 		strb	r3, [r4, #65]
 219:Drivers/STM32H7xx_HAL_Driver/Src/stm32h7xx_hal_i2c_ex.c **** 
 220:Drivers/STM32H7xx_HAL_Driver/Src/stm32h7xx_hal_i2c_ex.c ****     /* Disable the selected I2C peripheral */
 221:Drivers/STM32H7xx_HAL_Driver/Src/stm32h7xx_hal_i2c_ex.c ****     __HAL_I2C_DISABLE(hi2c);
 374              		.loc 1 221 5 is_stmt 1 discriminator 2 view .LVU93
 375 0046 2268     		ldr	r2, [r4]
 376 0048 1368     		ldr	r3, [r2]
 377 004a 23F00103 		bic	r3, r3, #1
 378 004e 1360     		str	r3, [r2]
 222:Drivers/STM32H7xx_HAL_Driver/Src/stm32h7xx_hal_i2c_ex.c **** 
 223:Drivers/STM32H7xx_HAL_Driver/Src/stm32h7xx_hal_i2c_ex.c ****     /* Enable wakeup from stop mode */
 224:Drivers/STM32H7xx_HAL_Driver/Src/stm32h7xx_hal_i2c_ex.c ****     hi2c->Instance->CR1 |= I2C_CR1_WUPEN;
 379              		.loc 1 224 5 discriminator 2 view .LVU94
 380              		.loc 1 224 9 is_stmt 0 discriminator 2 view .LVU95
 381 0050 2268     		ldr	r2, [r4]
 382              		.loc 1 224 25 discriminator 2 view .LVU96
 383 0052 1368     		ldr	r3, [r2]
 384 0054 43F48023 		orr	r3, r3, #262144
 385 0058 1360     		str	r3, [r2]
 225:Drivers/STM32H7xx_HAL_Driver/Src/stm32h7xx_hal_i2c_ex.c **** 
 226:Drivers/STM32H7xx_HAL_Driver/Src/stm32h7xx_hal_i2c_ex.c ****     __HAL_I2C_ENABLE(hi2c);
 386              		.loc 1 226 5 is_stmt 1 discriminator 2 view .LVU97
 387 005a 2268     		ldr	r2, [r4]
 388 005c 1368     		ldr	r3, [r2]
 389 005e 43F00103 		orr	r3, r3, #1
 390 0062 1360     		str	r3, [r2]
 227:Drivers/STM32H7xx_HAL_Driver/Src/stm32h7xx_hal_i2c_ex.c **** 
 228:Drivers/STM32H7xx_HAL_Driver/Src/stm32h7xx_hal_i2c_ex.c ****     hi2c->State = HAL_I2C_STATE_READY;
 391              		.loc 1 228 5 discriminator 2 view .LVU98
 392              		.loc 1 228 17 is_stmt 0 discriminator 2 view .LVU99
 393 0064 2023     		movs	r3, #32
ARM GAS  /tmp/cc7BgiPo.s 			page 12


 394 0066 84F84130 		strb	r3, [r4, #65]
 229:Drivers/STM32H7xx_HAL_Driver/Src/stm32h7xx_hal_i2c_ex.c **** 
 230:Drivers/STM32H7xx_HAL_Driver/Src/stm32h7xx_hal_i2c_ex.c ****     /* Process Unlocked */
 231:Drivers/STM32H7xx_HAL_Driver/Src/stm32h7xx_hal_i2c_ex.c ****     __HAL_UNLOCK(hi2c);
 395              		.loc 1 231 5 is_stmt 1 discriminator 2 view .LVU100
 396              		.loc 1 231 5 discriminator 2 view .LVU101
 397 006a 0020     		movs	r0, #0
 398 006c 84F84000 		strb	r0, [r4, #64]
 399              		.loc 1 231 5 discriminator 2 view .LVU102
 232:Drivers/STM32H7xx_HAL_Driver/Src/stm32h7xx_hal_i2c_ex.c **** 
 233:Drivers/STM32H7xx_HAL_Driver/Src/stm32h7xx_hal_i2c_ex.c ****     return HAL_OK;
 400              		.loc 1 233 5 discriminator 2 view .LVU103
 401              	.L23:
 234:Drivers/STM32H7xx_HAL_Driver/Src/stm32h7xx_hal_i2c_ex.c ****   }
 235:Drivers/STM32H7xx_HAL_Driver/Src/stm32h7xx_hal_i2c_ex.c ****   else
 236:Drivers/STM32H7xx_HAL_Driver/Src/stm32h7xx_hal_i2c_ex.c ****   {
 237:Drivers/STM32H7xx_HAL_Driver/Src/stm32h7xx_hal_i2c_ex.c ****     return HAL_BUSY;
 238:Drivers/STM32H7xx_HAL_Driver/Src/stm32h7xx_hal_i2c_ex.c ****   }
 239:Drivers/STM32H7xx_HAL_Driver/Src/stm32h7xx_hal_i2c_ex.c **** }
 402              		.loc 1 239 1 is_stmt 0 view .LVU104
 403 0070 10BD     		pop	{r4, pc}
 404              	.LVL20:
 405              	.L24:
 237:Drivers/STM32H7xx_HAL_Driver/Src/stm32h7xx_hal_i2c_ex.c ****   }
 406              		.loc 1 237 12 view .LVU105
 407 0072 0220     		movs	r0, #2
 408 0074 FCE7     		b	.L23
 409              	.L25:
 216:Drivers/STM32H7xx_HAL_Driver/Src/stm32h7xx_hal_i2c_ex.c **** 
 410              		.loc 1 216 5 view .LVU106
 411 0076 0220     		movs	r0, #2
 412 0078 FAE7     		b	.L23
 413              	.L28:
 414 007a 00BF     		.align	2
 415              	.L27:
 416 007c 00540040 		.word	1073763328
 417 0080 00580040 		.word	1073764352
 418 0084 001C0058 		.word	1476402176
 419 0088 00000000 		.word	.LC0
 420              		.cfi_endproc
 421              	.LFE146:
 423              		.section	.text.HAL_I2CEx_DisableWakeUp,"ax",%progbits
 424              		.align	1
 425              		.global	HAL_I2CEx_DisableWakeUp
 426              		.syntax unified
 427              		.thumb
 428              		.thumb_func
 429              		.fpu fpv5-d16
 431              	HAL_I2CEx_DisableWakeUp:
 432              	.LVL21:
 433              	.LFB147:
 240:Drivers/STM32H7xx_HAL_Driver/Src/stm32h7xx_hal_i2c_ex.c **** 
 241:Drivers/STM32H7xx_HAL_Driver/Src/stm32h7xx_hal_i2c_ex.c **** /**
 242:Drivers/STM32H7xx_HAL_Driver/Src/stm32h7xx_hal_i2c_ex.c ****   * @brief  Disable I2C wakeup from Stop mode(s).
 243:Drivers/STM32H7xx_HAL_Driver/Src/stm32h7xx_hal_i2c_ex.c ****   * @param  hi2c Pointer to a I2C_HandleTypeDef structure that contains
 244:Drivers/STM32H7xx_HAL_Driver/Src/stm32h7xx_hal_i2c_ex.c ****   *                the configuration information for the specified I2Cx peripheral.
 245:Drivers/STM32H7xx_HAL_Driver/Src/stm32h7xx_hal_i2c_ex.c ****   * @retval HAL status
ARM GAS  /tmp/cc7BgiPo.s 			page 13


 246:Drivers/STM32H7xx_HAL_Driver/Src/stm32h7xx_hal_i2c_ex.c ****   */
 247:Drivers/STM32H7xx_HAL_Driver/Src/stm32h7xx_hal_i2c_ex.c **** HAL_StatusTypeDef HAL_I2CEx_DisableWakeUp(I2C_HandleTypeDef *hi2c)
 248:Drivers/STM32H7xx_HAL_Driver/Src/stm32h7xx_hal_i2c_ex.c **** {
 434              		.loc 1 248 1 is_stmt 1 view -0
 435              		.cfi_startproc
 436              		@ args = 0, pretend = 0, frame = 0
 437              		@ frame_needed = 0, uses_anonymous_args = 0
 438              		.loc 1 248 1 is_stmt 0 view .LVU108
 439 0000 10B5     		push	{r4, lr}
 440              	.LCFI3:
 441              		.cfi_def_cfa_offset 8
 442              		.cfi_offset 4, -8
 443              		.cfi_offset 14, -4
 444 0002 0446     		mov	r4, r0
 249:Drivers/STM32H7xx_HAL_Driver/Src/stm32h7xx_hal_i2c_ex.c ****   /* Check the parameters */
 250:Drivers/STM32H7xx_HAL_Driver/Src/stm32h7xx_hal_i2c_ex.c ****   assert_param(IS_I2C_WAKEUP_FROMSTOP_INSTANCE(hi2c->Instance));
 445              		.loc 1 250 3 is_stmt 1 view .LVU109
 446 0004 0368     		ldr	r3, [r0]
 447 0006 1D49     		ldr	r1, .L35
 448 0008 1D4A     		ldr	r2, .L35+4
 449 000a 8B42     		cmp	r3, r1
 450 000c 18BF     		it	ne
 451 000e 9342     		cmpne	r3, r2
 452 0010 0AD0     		beq	.L30
 453              		.loc 1 250 3 is_stmt 0 discriminator 1 view .LVU110
 454 0012 02F58062 		add	r2, r2, #1024
 455 0016 9342     		cmp	r3, r2
 456 0018 06D0     		beq	.L30
 457              		.loc 1 250 3 discriminator 2 view .LVU111
 458 001a 1A4A     		ldr	r2, .L35+8
 459 001c 9342     		cmp	r3, r2
 460 001e 03D0     		beq	.L30
 461              		.loc 1 250 3 discriminator 3 view .LVU112
 462 0020 FA21     		movs	r1, #250
 463 0022 1948     		ldr	r0, .L35+12
 464              	.LVL22:
 465              		.loc 1 250 3 discriminator 3 view .LVU113
 466 0024 FFF7FEFF 		bl	assert_failed
 467              	.LVL23:
 468              	.L30:
 251:Drivers/STM32H7xx_HAL_Driver/Src/stm32h7xx_hal_i2c_ex.c **** 
 252:Drivers/STM32H7xx_HAL_Driver/Src/stm32h7xx_hal_i2c_ex.c ****   if (hi2c->State == HAL_I2C_STATE_READY)
 469              		.loc 1 252 3 is_stmt 1 view .LVU114
 470              		.loc 1 252 11 is_stmt 0 view .LVU115
 471 0028 94F84130 		ldrb	r3, [r4, #65]	@ zero_extendqisi2
 472 002c DBB2     		uxtb	r3, r3
 473              		.loc 1 252 6 view .LVU116
 474 002e 202B     		cmp	r3, #32
 475 0030 1FD1     		bne	.L32
 253:Drivers/STM32H7xx_HAL_Driver/Src/stm32h7xx_hal_i2c_ex.c ****   {
 254:Drivers/STM32H7xx_HAL_Driver/Src/stm32h7xx_hal_i2c_ex.c ****     /* Process Locked */
 255:Drivers/STM32H7xx_HAL_Driver/Src/stm32h7xx_hal_i2c_ex.c ****     __HAL_LOCK(hi2c);
 476              		.loc 1 255 5 is_stmt 1 view .LVU117
 477              		.loc 1 255 5 view .LVU118
 478 0032 94F84030 		ldrb	r3, [r4, #64]	@ zero_extendqisi2
 479 0036 012B     		cmp	r3, #1
 480 0038 1DD0     		beq	.L33
ARM GAS  /tmp/cc7BgiPo.s 			page 14


 481              		.loc 1 255 5 discriminator 2 view .LVU119
 482 003a 0123     		movs	r3, #1
 483 003c 84F84030 		strb	r3, [r4, #64]
 484              		.loc 1 255 5 discriminator 2 view .LVU120
 256:Drivers/STM32H7xx_HAL_Driver/Src/stm32h7xx_hal_i2c_ex.c **** 
 257:Drivers/STM32H7xx_HAL_Driver/Src/stm32h7xx_hal_i2c_ex.c ****     hi2c->State = HAL_I2C_STATE_BUSY;
 485              		.loc 1 257 5 discriminator 2 view .LVU121
 486              		.loc 1 257 17 is_stmt 0 discriminator 2 view .LVU122
 487 0040 2423     		movs	r3, #36
 488 0042 84F84130 		strb	r3, [r4, #65]
 258:Drivers/STM32H7xx_HAL_Driver/Src/stm32h7xx_hal_i2c_ex.c **** 
 259:Drivers/STM32H7xx_HAL_Driver/Src/stm32h7xx_hal_i2c_ex.c ****     /* Disable the selected I2C peripheral */
 260:Drivers/STM32H7xx_HAL_Driver/Src/stm32h7xx_hal_i2c_ex.c ****     __HAL_I2C_DISABLE(hi2c);
 489              		.loc 1 260 5 is_stmt 1 discriminator 2 view .LVU123
 490 0046 2268     		ldr	r2, [r4]
 491 0048 1368     		ldr	r3, [r2]
 492 004a 23F00103 		bic	r3, r3, #1
 493 004e 1360     		str	r3, [r2]
 261:Drivers/STM32H7xx_HAL_Driver/Src/stm32h7xx_hal_i2c_ex.c **** 
 262:Drivers/STM32H7xx_HAL_Driver/Src/stm32h7xx_hal_i2c_ex.c ****     /* Enable wakeup from stop mode */
 263:Drivers/STM32H7xx_HAL_Driver/Src/stm32h7xx_hal_i2c_ex.c ****     hi2c->Instance->CR1 &= ~(I2C_CR1_WUPEN);
 494              		.loc 1 263 5 discriminator 2 view .LVU124
 495              		.loc 1 263 9 is_stmt 0 discriminator 2 view .LVU125
 496 0050 2268     		ldr	r2, [r4]
 497              		.loc 1 263 25 discriminator 2 view .LVU126
 498 0052 1368     		ldr	r3, [r2]
 499 0054 23F48023 		bic	r3, r3, #262144
 500 0058 1360     		str	r3, [r2]
 264:Drivers/STM32H7xx_HAL_Driver/Src/stm32h7xx_hal_i2c_ex.c **** 
 265:Drivers/STM32H7xx_HAL_Driver/Src/stm32h7xx_hal_i2c_ex.c ****     __HAL_I2C_ENABLE(hi2c);
 501              		.loc 1 265 5 is_stmt 1 discriminator 2 view .LVU127
 502 005a 2268     		ldr	r2, [r4]
 503 005c 1368     		ldr	r3, [r2]
 504 005e 43F00103 		orr	r3, r3, #1
 505 0062 1360     		str	r3, [r2]
 266:Drivers/STM32H7xx_HAL_Driver/Src/stm32h7xx_hal_i2c_ex.c **** 
 267:Drivers/STM32H7xx_HAL_Driver/Src/stm32h7xx_hal_i2c_ex.c ****     hi2c->State = HAL_I2C_STATE_READY;
 506              		.loc 1 267 5 discriminator 2 view .LVU128
 507              		.loc 1 267 17 is_stmt 0 discriminator 2 view .LVU129
 508 0064 2023     		movs	r3, #32
 509 0066 84F84130 		strb	r3, [r4, #65]
 268:Drivers/STM32H7xx_HAL_Driver/Src/stm32h7xx_hal_i2c_ex.c **** 
 269:Drivers/STM32H7xx_HAL_Driver/Src/stm32h7xx_hal_i2c_ex.c ****     /* Process Unlocked */
 270:Drivers/STM32H7xx_HAL_Driver/Src/stm32h7xx_hal_i2c_ex.c ****     __HAL_UNLOCK(hi2c);
 510              		.loc 1 270 5 is_stmt 1 discriminator 2 view .LVU130
 511              		.loc 1 270 5 discriminator 2 view .LVU131
 512 006a 0020     		movs	r0, #0
 513 006c 84F84000 		strb	r0, [r4, #64]
 514              		.loc 1 270 5 discriminator 2 view .LVU132
 271:Drivers/STM32H7xx_HAL_Driver/Src/stm32h7xx_hal_i2c_ex.c **** 
 272:Drivers/STM32H7xx_HAL_Driver/Src/stm32h7xx_hal_i2c_ex.c ****     return HAL_OK;
 515              		.loc 1 272 5 discriminator 2 view .LVU133
 516              	.L31:
 273:Drivers/STM32H7xx_HAL_Driver/Src/stm32h7xx_hal_i2c_ex.c ****   }
 274:Drivers/STM32H7xx_HAL_Driver/Src/stm32h7xx_hal_i2c_ex.c ****   else
 275:Drivers/STM32H7xx_HAL_Driver/Src/stm32h7xx_hal_i2c_ex.c ****   {
 276:Drivers/STM32H7xx_HAL_Driver/Src/stm32h7xx_hal_i2c_ex.c ****     return HAL_BUSY;
ARM GAS  /tmp/cc7BgiPo.s 			page 15


 277:Drivers/STM32H7xx_HAL_Driver/Src/stm32h7xx_hal_i2c_ex.c ****   }
 278:Drivers/STM32H7xx_HAL_Driver/Src/stm32h7xx_hal_i2c_ex.c **** }
 517              		.loc 1 278 1 is_stmt 0 view .LVU134
 518 0070 10BD     		pop	{r4, pc}
 519              	.LVL24:
 520              	.L32:
 276:Drivers/STM32H7xx_HAL_Driver/Src/stm32h7xx_hal_i2c_ex.c ****   }
 521              		.loc 1 276 12 view .LVU135
 522 0072 0220     		movs	r0, #2
 523 0074 FCE7     		b	.L31
 524              	.L33:
 255:Drivers/STM32H7xx_HAL_Driver/Src/stm32h7xx_hal_i2c_ex.c **** 
 525              		.loc 1 255 5 view .LVU136
 526 0076 0220     		movs	r0, #2
 527 0078 FAE7     		b	.L31
 528              	.L36:
 529 007a 00BF     		.align	2
 530              	.L35:
 531 007c 00540040 		.word	1073763328
 532 0080 00580040 		.word	1073764352
 533 0084 001C0058 		.word	1476402176
 534 0088 00000000 		.word	.LC0
 535              		.cfi_endproc
 536              	.LFE147:
 538              		.section	.text.HAL_I2CEx_EnableFastModePlus,"ax",%progbits
 539              		.align	1
 540              		.global	HAL_I2CEx_EnableFastModePlus
 541              		.syntax unified
 542              		.thumb
 543              		.thumb_func
 544              		.fpu fpv5-d16
 546              	HAL_I2CEx_EnableFastModePlus:
 547              	.LVL25:
 548              	.LFB148:
 279:Drivers/STM32H7xx_HAL_Driver/Src/stm32h7xx_hal_i2c_ex.c **** /**
 280:Drivers/STM32H7xx_HAL_Driver/Src/stm32h7xx_hal_i2c_ex.c ****   * @}
 281:Drivers/STM32H7xx_HAL_Driver/Src/stm32h7xx_hal_i2c_ex.c ****   */
 282:Drivers/STM32H7xx_HAL_Driver/Src/stm32h7xx_hal_i2c_ex.c **** 
 283:Drivers/STM32H7xx_HAL_Driver/Src/stm32h7xx_hal_i2c_ex.c **** /** @defgroup I2CEx_Exported_Functions_Group3 Fast Mode Plus Functions
 284:Drivers/STM32H7xx_HAL_Driver/Src/stm32h7xx_hal_i2c_ex.c ****   * @brief    Fast Mode Plus Functions
 285:Drivers/STM32H7xx_HAL_Driver/Src/stm32h7xx_hal_i2c_ex.c ****   *
 286:Drivers/STM32H7xx_HAL_Driver/Src/stm32h7xx_hal_i2c_ex.c **** @verbatim
 287:Drivers/STM32H7xx_HAL_Driver/Src/stm32h7xx_hal_i2c_ex.c ****  ===============================================================================
 288:Drivers/STM32H7xx_HAL_Driver/Src/stm32h7xx_hal_i2c_ex.c ****                       ##### Fast Mode Plus Functions #####
 289:Drivers/STM32H7xx_HAL_Driver/Src/stm32h7xx_hal_i2c_ex.c ****  ===============================================================================
 290:Drivers/STM32H7xx_HAL_Driver/Src/stm32h7xx_hal_i2c_ex.c ****     [..] This section provides functions allowing to:
 291:Drivers/STM32H7xx_HAL_Driver/Src/stm32h7xx_hal_i2c_ex.c ****       (+) Configure Fast Mode Plus
 292:Drivers/STM32H7xx_HAL_Driver/Src/stm32h7xx_hal_i2c_ex.c **** 
 293:Drivers/STM32H7xx_HAL_Driver/Src/stm32h7xx_hal_i2c_ex.c **** @endverbatim
 294:Drivers/STM32H7xx_HAL_Driver/Src/stm32h7xx_hal_i2c_ex.c ****   * @{
 295:Drivers/STM32H7xx_HAL_Driver/Src/stm32h7xx_hal_i2c_ex.c ****   */
 296:Drivers/STM32H7xx_HAL_Driver/Src/stm32h7xx_hal_i2c_ex.c **** 
 297:Drivers/STM32H7xx_HAL_Driver/Src/stm32h7xx_hal_i2c_ex.c **** /**
 298:Drivers/STM32H7xx_HAL_Driver/Src/stm32h7xx_hal_i2c_ex.c ****   * @brief Enable the I2C fast mode plus driving capability.
 299:Drivers/STM32H7xx_HAL_Driver/Src/stm32h7xx_hal_i2c_ex.c ****   * @param ConfigFastModePlus Selects the pin.
 300:Drivers/STM32H7xx_HAL_Driver/Src/stm32h7xx_hal_i2c_ex.c ****   *   This parameter can be one of the @ref I2CEx_FastModePlus values
 301:Drivers/STM32H7xx_HAL_Driver/Src/stm32h7xx_hal_i2c_ex.c ****   * @note  For I2C1, fast mode plus driving capability can be enabled on all selected
ARM GAS  /tmp/cc7BgiPo.s 			page 16


 302:Drivers/STM32H7xx_HAL_Driver/Src/stm32h7xx_hal_i2c_ex.c ****   *        I2C1 pins using I2C_FASTMODEPLUS_I2C1 parameter or independently
 303:Drivers/STM32H7xx_HAL_Driver/Src/stm32h7xx_hal_i2c_ex.c ****   *        on each one of the following pins PB6, PB7, PB8 and PB9.
 304:Drivers/STM32H7xx_HAL_Driver/Src/stm32h7xx_hal_i2c_ex.c ****   * @note  For remaining I2C1 pins (PA14, PA15...) fast mode plus driving capability
 305:Drivers/STM32H7xx_HAL_Driver/Src/stm32h7xx_hal_i2c_ex.c ****   *        can be enabled only by using I2C_FASTMODEPLUS_I2C1 parameter.
 306:Drivers/STM32H7xx_HAL_Driver/Src/stm32h7xx_hal_i2c_ex.c ****   * @note  For all I2C2 pins fast mode plus driving capability can be enabled
 307:Drivers/STM32H7xx_HAL_Driver/Src/stm32h7xx_hal_i2c_ex.c ****   *        only by using I2C_FASTMODEPLUS_I2C2 parameter.
 308:Drivers/STM32H7xx_HAL_Driver/Src/stm32h7xx_hal_i2c_ex.c ****   * @note  For all I2C3 pins fast mode plus driving capability can be enabled
 309:Drivers/STM32H7xx_HAL_Driver/Src/stm32h7xx_hal_i2c_ex.c ****   *        only by using I2C_FASTMODEPLUS_I2C3 parameter.
 310:Drivers/STM32H7xx_HAL_Driver/Src/stm32h7xx_hal_i2c_ex.c ****   * @note  For all I2C4 pins fast mode plus driving capability can be enabled
 311:Drivers/STM32H7xx_HAL_Driver/Src/stm32h7xx_hal_i2c_ex.c ****   *        only by using I2C_FASTMODEPLUS_I2C4 parameter.
 312:Drivers/STM32H7xx_HAL_Driver/Src/stm32h7xx_hal_i2c_ex.c ****   * @note  For all I2C5 pins fast mode plus driving capability can be enabled
 313:Drivers/STM32H7xx_HAL_Driver/Src/stm32h7xx_hal_i2c_ex.c ****   *        only by using I2C_FASTMODEPLUS_I2C5 parameter.
 314:Drivers/STM32H7xx_HAL_Driver/Src/stm32h7xx_hal_i2c_ex.c ****   * @retval None
 315:Drivers/STM32H7xx_HAL_Driver/Src/stm32h7xx_hal_i2c_ex.c ****   */
 316:Drivers/STM32H7xx_HAL_Driver/Src/stm32h7xx_hal_i2c_ex.c **** void HAL_I2CEx_EnableFastModePlus(uint32_t ConfigFastModePlus)
 317:Drivers/STM32H7xx_HAL_Driver/Src/stm32h7xx_hal_i2c_ex.c **** {
 549              		.loc 1 317 1 is_stmt 1 view -0
 550              		.cfi_startproc
 551              		@ args = 0, pretend = 0, frame = 8
 552              		@ frame_needed = 0, uses_anonymous_args = 0
 553              		.loc 1 317 1 is_stmt 0 view .LVU138
 554 0000 10B5     		push	{r4, lr}
 555              	.LCFI4:
 556              		.cfi_def_cfa_offset 8
 557              		.cfi_offset 4, -8
 558              		.cfi_offset 14, -4
 559 0002 82B0     		sub	sp, sp, #8
 560              	.LCFI5:
 561              		.cfi_def_cfa_offset 16
 562 0004 0446     		mov	r4, r0
 318:Drivers/STM32H7xx_HAL_Driver/Src/stm32h7xx_hal_i2c_ex.c ****   /* Check the parameter */
 319:Drivers/STM32H7xx_HAL_Driver/Src/stm32h7xx_hal_i2c_ex.c ****   assert_param(IS_I2C_FASTMODEPLUS(ConfigFastModePlus));
 563              		.loc 1 319 3 is_stmt 1 view .LVU139
 564 0006 10F0FF0F 		tst	r0, #255
 565 000a 12D0     		beq	.L40
 566              	.LVL26:
 567              	.L38:
 320:Drivers/STM32H7xx_HAL_Driver/Src/stm32h7xx_hal_i2c_ex.c **** 
 321:Drivers/STM32H7xx_HAL_Driver/Src/stm32h7xx_hal_i2c_ex.c ****   /* Enable SYSCFG clock */
 322:Drivers/STM32H7xx_HAL_Driver/Src/stm32h7xx_hal_i2c_ex.c ****   __HAL_RCC_SYSCFG_CLK_ENABLE();
 568              		.loc 1 322 3 view .LVU140
 569              	.LBB2:
 570              		.loc 1 322 3 view .LVU141
 571              		.loc 1 322 3 view .LVU142
 572 000c 0C4B     		ldr	r3, .L41
 573 000e D3F8F420 		ldr	r2, [r3, #244]
 574 0012 42F00202 		orr	r2, r2, #2
 575 0016 C3F8F420 		str	r2, [r3, #244]
 576              		.loc 1 322 3 view .LVU143
 577 001a D3F8F430 		ldr	r3, [r3, #244]
 578 001e 03F00203 		and	r3, r3, #2
 579 0022 0193     		str	r3, [sp, #4]
 580              		.loc 1 322 3 view .LVU144
 581 0024 019B     		ldr	r3, [sp, #4]
 582              	.LBE2:
 583              		.loc 1 322 3 view .LVU145
 323:Drivers/STM32H7xx_HAL_Driver/Src/stm32h7xx_hal_i2c_ex.c **** 
ARM GAS  /tmp/cc7BgiPo.s 			page 17


 324:Drivers/STM32H7xx_HAL_Driver/Src/stm32h7xx_hal_i2c_ex.c ****   /* Enable fast mode plus driving capability for selected pin */
 325:Drivers/STM32H7xx_HAL_Driver/Src/stm32h7xx_hal_i2c_ex.c ****   SET_BIT(SYSCFG->PMCR, (uint32_t)ConfigFastModePlus);
 584              		.loc 1 325 3 view .LVU146
 585 0026 074B     		ldr	r3, .L41+4
 586 0028 5868     		ldr	r0, [r3, #4]
 587 002a 0443     		orrs	r4, r4, r0
 588              	.LVL27:
 589              		.loc 1 325 3 is_stmt 0 view .LVU147
 590 002c 5C60     		str	r4, [r3, #4]
 326:Drivers/STM32H7xx_HAL_Driver/Src/stm32h7xx_hal_i2c_ex.c **** }
 591              		.loc 1 326 1 view .LVU148
 592 002e 02B0     		add	sp, sp, #8
 593              	.LCFI6:
 594              		.cfi_remember_state
 595              		.cfi_def_cfa_offset 8
 596              		@ sp needed
 597 0030 10BD     		pop	{r4, pc}
 598              	.LVL28:
 599              	.L40:
 600              	.LCFI7:
 601              		.cfi_restore_state
 319:Drivers/STM32H7xx_HAL_Driver/Src/stm32h7xx_hal_i2c_ex.c **** 
 602              		.loc 1 319 3 discriminator 1 view .LVU149
 603 0032 40F23F11 		movw	r1, #319
 604 0036 0448     		ldr	r0, .L41+8
 605              	.LVL29:
 319:Drivers/STM32H7xx_HAL_Driver/Src/stm32h7xx_hal_i2c_ex.c **** 
 606              		.loc 1 319 3 discriminator 1 view .LVU150
 607 0038 FFF7FEFF 		bl	assert_failed
 608              	.LVL30:
 609 003c E6E7     		b	.L38
 610              	.L42:
 611 003e 00BF     		.align	2
 612              	.L41:
 613 0040 00440258 		.word	1476543488
 614 0044 00040058 		.word	1476396032
 615 0048 00000000 		.word	.LC0
 616              		.cfi_endproc
 617              	.LFE148:
 619              		.section	.text.HAL_I2CEx_DisableFastModePlus,"ax",%progbits
 620              		.align	1
 621              		.global	HAL_I2CEx_DisableFastModePlus
 622              		.syntax unified
 623              		.thumb
 624              		.thumb_func
 625              		.fpu fpv5-d16
 627              	HAL_I2CEx_DisableFastModePlus:
 628              	.LVL31:
 629              	.LFB149:
 327:Drivers/STM32H7xx_HAL_Driver/Src/stm32h7xx_hal_i2c_ex.c **** 
 328:Drivers/STM32H7xx_HAL_Driver/Src/stm32h7xx_hal_i2c_ex.c **** /**
 329:Drivers/STM32H7xx_HAL_Driver/Src/stm32h7xx_hal_i2c_ex.c ****   * @brief Disable the I2C fast mode plus driving capability.
 330:Drivers/STM32H7xx_HAL_Driver/Src/stm32h7xx_hal_i2c_ex.c ****   * @param ConfigFastModePlus Selects the pin.
 331:Drivers/STM32H7xx_HAL_Driver/Src/stm32h7xx_hal_i2c_ex.c ****   *   This parameter can be one of the @ref I2CEx_FastModePlus values
 332:Drivers/STM32H7xx_HAL_Driver/Src/stm32h7xx_hal_i2c_ex.c ****   * @note  For I2C1, fast mode plus driving capability can be disabled on all selected
 333:Drivers/STM32H7xx_HAL_Driver/Src/stm32h7xx_hal_i2c_ex.c ****   *        I2C1 pins using I2C_FASTMODEPLUS_I2C1 parameter or independently
 334:Drivers/STM32H7xx_HAL_Driver/Src/stm32h7xx_hal_i2c_ex.c ****   *        on each one of the following pins PB6, PB7, PB8 and PB9.
ARM GAS  /tmp/cc7BgiPo.s 			page 18


 335:Drivers/STM32H7xx_HAL_Driver/Src/stm32h7xx_hal_i2c_ex.c ****   * @note  For remaining I2C1 pins (PA14, PA15...) fast mode plus driving capability
 336:Drivers/STM32H7xx_HAL_Driver/Src/stm32h7xx_hal_i2c_ex.c ****   *        can be disabled only by using I2C_FASTMODEPLUS_I2C1 parameter.
 337:Drivers/STM32H7xx_HAL_Driver/Src/stm32h7xx_hal_i2c_ex.c ****   * @note  For all I2C2 pins fast mode plus driving capability can be disabled
 338:Drivers/STM32H7xx_HAL_Driver/Src/stm32h7xx_hal_i2c_ex.c ****   *        only by using I2C_FASTMODEPLUS_I2C2 parameter.
 339:Drivers/STM32H7xx_HAL_Driver/Src/stm32h7xx_hal_i2c_ex.c ****   * @note  For all I2C3 pins fast mode plus driving capability can be disabled
 340:Drivers/STM32H7xx_HAL_Driver/Src/stm32h7xx_hal_i2c_ex.c ****   *        only by using I2C_FASTMODEPLUS_I2C3 parameter.
 341:Drivers/STM32H7xx_HAL_Driver/Src/stm32h7xx_hal_i2c_ex.c ****   * @note  For all I2C4 pins fast mode plus driving capability can be disabled
 342:Drivers/STM32H7xx_HAL_Driver/Src/stm32h7xx_hal_i2c_ex.c ****   *        only by using I2C_FASTMODEPLUS_I2C4 parameter.
 343:Drivers/STM32H7xx_HAL_Driver/Src/stm32h7xx_hal_i2c_ex.c ****   * @note  For all I2C5 pins fast mode plus driving capability can be disabled
 344:Drivers/STM32H7xx_HAL_Driver/Src/stm32h7xx_hal_i2c_ex.c ****   *        only by using I2C_FASTMODEPLUS_I2C5 parameter.
 345:Drivers/STM32H7xx_HAL_Driver/Src/stm32h7xx_hal_i2c_ex.c ****   * @retval None
 346:Drivers/STM32H7xx_HAL_Driver/Src/stm32h7xx_hal_i2c_ex.c ****   */
 347:Drivers/STM32H7xx_HAL_Driver/Src/stm32h7xx_hal_i2c_ex.c **** void HAL_I2CEx_DisableFastModePlus(uint32_t ConfigFastModePlus)
 348:Drivers/STM32H7xx_HAL_Driver/Src/stm32h7xx_hal_i2c_ex.c **** {
 630              		.loc 1 348 1 is_stmt 1 view -0
 631              		.cfi_startproc
 632              		@ args = 0, pretend = 0, frame = 8
 633              		@ frame_needed = 0, uses_anonymous_args = 0
 634              		.loc 1 348 1 is_stmt 0 view .LVU152
 635 0000 10B5     		push	{r4, lr}
 636              	.LCFI8:
 637              		.cfi_def_cfa_offset 8
 638              		.cfi_offset 4, -8
 639              		.cfi_offset 14, -4
 640 0002 82B0     		sub	sp, sp, #8
 641              	.LCFI9:
 642              		.cfi_def_cfa_offset 16
 643 0004 0446     		mov	r4, r0
 349:Drivers/STM32H7xx_HAL_Driver/Src/stm32h7xx_hal_i2c_ex.c ****   /* Check the parameter */
 350:Drivers/STM32H7xx_HAL_Driver/Src/stm32h7xx_hal_i2c_ex.c ****   assert_param(IS_I2C_FASTMODEPLUS(ConfigFastModePlus));
 644              		.loc 1 350 3 is_stmt 1 view .LVU153
 645 0006 10F0FF0F 		tst	r0, #255
 646 000a 13D0     		beq	.L46
 647              	.LVL32:
 648              	.L44:
 351:Drivers/STM32H7xx_HAL_Driver/Src/stm32h7xx_hal_i2c_ex.c **** 
 352:Drivers/STM32H7xx_HAL_Driver/Src/stm32h7xx_hal_i2c_ex.c ****   /* Enable SYSCFG clock */
 353:Drivers/STM32H7xx_HAL_Driver/Src/stm32h7xx_hal_i2c_ex.c ****   __HAL_RCC_SYSCFG_CLK_ENABLE();
 649              		.loc 1 353 3 view .LVU154
 650              	.LBB3:
 651              		.loc 1 353 3 view .LVU155
 652              		.loc 1 353 3 view .LVU156
 653 000c 0C4B     		ldr	r3, .L47
 654 000e D3F8F420 		ldr	r2, [r3, #244]
 655 0012 42F00202 		orr	r2, r2, #2
 656 0016 C3F8F420 		str	r2, [r3, #244]
 657              		.loc 1 353 3 view .LVU157
 658 001a D3F8F430 		ldr	r3, [r3, #244]
 659 001e 03F00203 		and	r3, r3, #2
 660 0022 0193     		str	r3, [sp, #4]
 661              		.loc 1 353 3 view .LVU158
 662 0024 019B     		ldr	r3, [sp, #4]
 663              	.LBE3:
 664              		.loc 1 353 3 view .LVU159
 354:Drivers/STM32H7xx_HAL_Driver/Src/stm32h7xx_hal_i2c_ex.c **** 
 355:Drivers/STM32H7xx_HAL_Driver/Src/stm32h7xx_hal_i2c_ex.c ****   /* Disable fast mode plus driving capability for selected pin */
 356:Drivers/STM32H7xx_HAL_Driver/Src/stm32h7xx_hal_i2c_ex.c ****   CLEAR_BIT(SYSCFG->PMCR, (uint32_t)ConfigFastModePlus);
ARM GAS  /tmp/cc7BgiPo.s 			page 19


 665              		.loc 1 356 3 view .LVU160
 666 0026 074B     		ldr	r3, .L47+4
 667 0028 5868     		ldr	r0, [r3, #4]
 668 002a 20EA0404 		bic	r4, r0, r4
 669              	.LVL33:
 670              		.loc 1 356 3 is_stmt 0 view .LVU161
 671 002e 5C60     		str	r4, [r3, #4]
 357:Drivers/STM32H7xx_HAL_Driver/Src/stm32h7xx_hal_i2c_ex.c **** }
 672              		.loc 1 357 1 view .LVU162
 673 0030 02B0     		add	sp, sp, #8
 674              	.LCFI10:
 675              		.cfi_remember_state
 676              		.cfi_def_cfa_offset 8
 677              		@ sp needed
 678 0032 10BD     		pop	{r4, pc}
 679              	.LVL34:
 680              	.L46:
 681              	.LCFI11:
 682              		.cfi_restore_state
 350:Drivers/STM32H7xx_HAL_Driver/Src/stm32h7xx_hal_i2c_ex.c **** 
 683              		.loc 1 350 3 discriminator 1 view .LVU163
 684 0034 4FF4AF71 		mov	r1, #350
 685 0038 0348     		ldr	r0, .L47+8
 686              	.LVL35:
 350:Drivers/STM32H7xx_HAL_Driver/Src/stm32h7xx_hal_i2c_ex.c **** 
 687              		.loc 1 350 3 discriminator 1 view .LVU164
 688 003a FFF7FEFF 		bl	assert_failed
 689              	.LVL36:
 690 003e E5E7     		b	.L44
 691              	.L48:
 692              		.align	2
 693              	.L47:
 694 0040 00440258 		.word	1476543488
 695 0044 00040058 		.word	1476396032
 696 0048 00000000 		.word	.LC0
 697              		.cfi_endproc
 698              	.LFE149:
 700              		.text
 701              	.Letext0:
 702              		.file 2 "/usr/lib/gcc/arm-none-eabi/10.3.1/include/stdint.h"
 703              		.file 3 "Drivers/CMSIS/Device/ST/STM32H7xx/Include/stm32h753xx.h"
 704              		.file 4 "Drivers/STM32H7xx_HAL_Driver/Inc/stm32h7xx_hal_def.h"
 705              		.file 5 "Drivers/STM32H7xx_HAL_Driver/Inc/stm32h7xx_hal_dma.h"
 706              		.file 6 "Drivers/STM32H7xx_HAL_Driver/Inc/stm32h7xx_hal_i2c.h"
 707              		.file 7 "Core/Inc/stm32h7xx_hal_conf.h"
ARM GAS  /tmp/cc7BgiPo.s 			page 20

